
kernel.elf：     文件格式 elf32-i386


Disassembly of section .text:

00100000 <kern_start>:
  100000:	02 b0 ad 1b 03 00    	add    0x31bad(%eax),%dh
  100006:	00 00                	add    %al,(%eax)
  100008:	fb                   	sti    
  100009:	4f                   	dec    %edi
  10000a:	52                   	push   %edx
  10000b:	e4                   	.byte 0xe4

0010000c <GDT_BASE>:
	...

00100014 <CODE_DESC>:
  100014:	ff ff 00 00 00 98 cf 00                             ........

0010001c <DATA_STACK_DESC>:
  10001c:	ff ff 00 00 00 92 cf 00                             ........

00100024 <VIDEO_DESC>:
  100024:	07 00 00 80 0b 92 c0 00 00 00 00 00 00 00 00 00     ................
	...

0010011c <total_mem_bytes>:
  10011c:	00 00 00 00                                         ....

00100120 <gdt_ptr>:
  100120:	1f 00 0c 00 10 00                                   ......

00100126 <boot_start>:
  100126:	fa                   	cli    
  100127:	89 1d 08 40 10 00    	mov    %ebx,0x104008
  10012d:	e4 92                	in     $0x92,%al
  10012f:	0c 02                	or     $0x2,%al
  100131:	e6 92                	out    %al,$0x92
  100133:	0f 01 15 20 01 10 00 	lgdtl  0x100120
  10013a:	0f 20 c0             	mov    %cr0,%eax
  10013d:	83 c8 01             	or     $0x1,%eax
  100140:	0f 22 c0             	mov    %eax,%cr0
  100143:	ea 4a 01 10 00 08 00 	ljmp   $0x8,$0x10014a

0010014a <far_jmp_target>:
  10014a:	66 b8 10 00          	mov    $0x10,%ax
  10014e:	8e d0                	mov    %eax,%ss
  100150:	8e d8                	mov    %eax,%ds
  100152:	66 b8 18 00          	mov    $0x18,%ax
  100156:	8e e8                	mov    %eax,%gs
  100158:	bc ff 5f 18 00       	mov    $0x185fff,%esp
  10015d:	83 e4 f0             	and    $0xfffffff0,%esp
  100160:	bd 00 00 00 00       	mov    $0x0,%ebp
  100165:	e8 ed 11 00 00       	call   101357 <kern_entry>
  10016a:	e9 fb ff ff ff       	jmp    10016a <far_jmp_target+0x20>
  10016f:	90                   	nop

00100170 <pre_handle>:
  100170:	60                   	pusha  
  100171:	36 8b 4c 24 20       	mov    %ss:0x20(%esp),%ecx
  100176:	89 c3                	mov    %eax,%ebx
  100178:	66 8c c0             	mov    %es,%ax
  10017b:	25 ff ff 00 00       	and    $0xffff,%eax
  100180:	50                   	push   %eax
  100181:	66 8c e0             	mov    %fs,%ax
  100184:	25 ff ff 00 00       	and    $0xffff,%eax
  100189:	50                   	push   %eax
  10018a:	66 8c e8             	mov    %gs,%ax
  10018d:	25 ff ff 00 00       	and    $0xffff,%eax
  100192:	50                   	push   %eax
  100193:	66 b8 10 00          	mov    $0x10,%ax
  100197:	8e c0                	mov    %eax,%es
  100199:	8e e0                	mov    %eax,%fs
  10019b:	66 b8 18 00          	mov    $0x18,%ax
  10019f:	8e e8                	mov    %eax,%gs
  1001a1:	53                   	push   %ebx
  1001a2:	51                   	push   %ecx
  1001a3:	e8 50 2d 00 00       	call   102ef8 <int_func_route>
  1001a8:	83 c4 08             	add    $0x8,%esp
  1001ab:	58                   	pop    %eax
  1001ac:	8e e8                	mov    %eax,%gs
  1001ae:	58                   	pop    %eax
  1001af:	8e e0                	mov    %eax,%fs
  1001b1:	58                   	pop    %eax
  1001b2:	8e c0                	mov    %eax,%es
  1001b4:	61                   	popa   
  1001b5:	83 c4 08             	add    $0x8,%esp
  1001b8:	b0 20                	mov    $0x20,%al
  1001ba:	e6 a0                	out    %al,$0xa0
  1001bc:	e6 20                	out    %al,$0x20
  1001be:	cf                   	iret   

001001bf <isr0>:
  1001bf:	89 e0                	mov    %esp,%eax
  1001c1:	6a 00                	push   $0x0
  1001c3:	6a 00                	push   $0x0
  1001c5:	eb a9                	jmp    100170 <pre_handle>

001001c7 <isr1>:
  1001c7:	89 e0                	mov    %esp,%eax
  1001c9:	6a 00                	push   $0x0
  1001cb:	6a 01                	push   $0x1
  1001cd:	eb a1                	jmp    100170 <pre_handle>

001001cf <isr2>:
  1001cf:	89 e0                	mov    %esp,%eax
  1001d1:	6a 00                	push   $0x0
  1001d3:	6a 02                	push   $0x2
  1001d5:	eb 99                	jmp    100170 <pre_handle>

001001d7 <isr3>:
  1001d7:	89 e0                	mov    %esp,%eax
  1001d9:	6a 00                	push   $0x0
  1001db:	6a 03                	push   $0x3
  1001dd:	eb 91                	jmp    100170 <pre_handle>

001001df <isr4>:
  1001df:	89 e0                	mov    %esp,%eax
  1001e1:	6a 00                	push   $0x0
  1001e3:	6a 04                	push   $0x4
  1001e5:	eb 89                	jmp    100170 <pre_handle>

001001e7 <isr5>:
  1001e7:	89 e0                	mov    %esp,%eax
  1001e9:	6a 00                	push   $0x0
  1001eb:	6a 05                	push   $0x5
  1001ed:	eb 81                	jmp    100170 <pre_handle>

001001ef <isr6>:
  1001ef:	89 e0                	mov    %esp,%eax
  1001f1:	6a 00                	push   $0x0
  1001f3:	6a 06                	push   $0x6
  1001f5:	e9 76 ff ff ff       	jmp    100170 <pre_handle>

001001fa <isr7>:
  1001fa:	89 e0                	mov    %esp,%eax
  1001fc:	6a 00                	push   $0x0
  1001fe:	6a 07                	push   $0x7
  100200:	e9 6b ff ff ff       	jmp    100170 <pre_handle>

00100205 <isr8>:
  100205:	89 e0                	mov    %esp,%eax
  100207:	90                   	nop
  100208:	6a 08                	push   $0x8
  10020a:	e9 61 ff ff ff       	jmp    100170 <pre_handle>

0010020f <isr9>:
  10020f:	89 e0                	mov    %esp,%eax
  100211:	6a 00                	push   $0x0
  100213:	6a 09                	push   $0x9
  100215:	e9 56 ff ff ff       	jmp    100170 <pre_handle>

0010021a <isr10>:
  10021a:	89 e0                	mov    %esp,%eax
  10021c:	90                   	nop
  10021d:	6a 0a                	push   $0xa
  10021f:	e9 4c ff ff ff       	jmp    100170 <pre_handle>

00100224 <isr11>:
  100224:	89 e0                	mov    %esp,%eax
  100226:	90                   	nop
  100227:	6a 0b                	push   $0xb
  100229:	e9 42 ff ff ff       	jmp    100170 <pre_handle>

0010022e <isr12>:
  10022e:	89 e0                	mov    %esp,%eax
  100230:	90                   	nop
  100231:	6a 0c                	push   $0xc
  100233:	e9 38 ff ff ff       	jmp    100170 <pre_handle>

00100238 <isr13>:
  100238:	89 e0                	mov    %esp,%eax
  10023a:	90                   	nop
  10023b:	6a 0d                	push   $0xd
  10023d:	e9 2e ff ff ff       	jmp    100170 <pre_handle>

00100242 <isr14>:
  100242:	89 e0                	mov    %esp,%eax
  100244:	90                   	nop
  100245:	6a 0e                	push   $0xe
  100247:	e9 24 ff ff ff       	jmp    100170 <pre_handle>

0010024c <isr15>:
  10024c:	89 e0                	mov    %esp,%eax
  10024e:	6a 00                	push   $0x0
  100250:	6a 0f                	push   $0xf
  100252:	e9 19 ff ff ff       	jmp    100170 <pre_handle>

00100257 <isr16>:
  100257:	89 e0                	mov    %esp,%eax
  100259:	6a 00                	push   $0x0
  10025b:	6a 10                	push   $0x10
  10025d:	e9 0e ff ff ff       	jmp    100170 <pre_handle>

00100262 <isr17>:
  100262:	89 e0                	mov    %esp,%eax
  100264:	90                   	nop
  100265:	6a 11                	push   $0x11
  100267:	e9 04 ff ff ff       	jmp    100170 <pre_handle>

0010026c <isr18>:
  10026c:	89 e0                	mov    %esp,%eax
  10026e:	6a 00                	push   $0x0
  100270:	6a 12                	push   $0x12
  100272:	e9 f9 fe ff ff       	jmp    100170 <pre_handle>

00100277 <isr19>:
  100277:	89 e0                	mov    %esp,%eax
  100279:	6a 00                	push   $0x0
  10027b:	6a 13                	push   $0x13
  10027d:	e9 ee fe ff ff       	jmp    100170 <pre_handle>

00100282 <isr20>:
  100282:	89 e0                	mov    %esp,%eax
  100284:	6a 00                	push   $0x0
  100286:	6a 14                	push   $0x14
  100288:	e9 e3 fe ff ff       	jmp    100170 <pre_handle>

0010028d <isr21>:
  10028d:	89 e0                	mov    %esp,%eax
  10028f:	6a 00                	push   $0x0
  100291:	6a 15                	push   $0x15
  100293:	e9 d8 fe ff ff       	jmp    100170 <pre_handle>

00100298 <isr22>:
  100298:	89 e0                	mov    %esp,%eax
  10029a:	6a 00                	push   $0x0
  10029c:	6a 16                	push   $0x16
  10029e:	e9 cd fe ff ff       	jmp    100170 <pre_handle>

001002a3 <isr23>:
  1002a3:	89 e0                	mov    %esp,%eax
  1002a5:	6a 00                	push   $0x0
  1002a7:	6a 17                	push   $0x17
  1002a9:	e9 c2 fe ff ff       	jmp    100170 <pre_handle>

001002ae <isr24>:
  1002ae:	89 e0                	mov    %esp,%eax
  1002b0:	6a 00                	push   $0x0
  1002b2:	6a 18                	push   $0x18
  1002b4:	e9 b7 fe ff ff       	jmp    100170 <pre_handle>

001002b9 <isr25>:
  1002b9:	89 e0                	mov    %esp,%eax
  1002bb:	6a 00                	push   $0x0
  1002bd:	6a 19                	push   $0x19
  1002bf:	e9 ac fe ff ff       	jmp    100170 <pre_handle>

001002c4 <isr26>:
  1002c4:	89 e0                	mov    %esp,%eax
  1002c6:	6a 00                	push   $0x0
  1002c8:	6a 1a                	push   $0x1a
  1002ca:	e9 a1 fe ff ff       	jmp    100170 <pre_handle>

001002cf <isr27>:
  1002cf:	89 e0                	mov    %esp,%eax
  1002d1:	6a 00                	push   $0x0
  1002d3:	6a 1b                	push   $0x1b
  1002d5:	e9 96 fe ff ff       	jmp    100170 <pre_handle>

001002da <isr28>:
  1002da:	89 e0                	mov    %esp,%eax
  1002dc:	6a 00                	push   $0x0
  1002de:	6a 1c                	push   $0x1c
  1002e0:	e9 8b fe ff ff       	jmp    100170 <pre_handle>

001002e5 <isr29>:
  1002e5:	89 e0                	mov    %esp,%eax
  1002e7:	6a 00                	push   $0x0
  1002e9:	6a 1d                	push   $0x1d
  1002eb:	e9 80 fe ff ff       	jmp    100170 <pre_handle>

001002f0 <isr30>:
  1002f0:	89 e0                	mov    %esp,%eax
  1002f2:	6a 00                	push   $0x0
  1002f4:	6a 1e                	push   $0x1e
  1002f6:	e9 75 fe ff ff       	jmp    100170 <pre_handle>

001002fb <isr31>:
  1002fb:	89 e0                	mov    %esp,%eax
  1002fd:	6a 00                	push   $0x0
  1002ff:	6a 1f                	push   $0x1f
  100301:	e9 6a fe ff ff       	jmp    100170 <pre_handle>

00100306 <isr32>:
  100306:	89 e0                	mov    %esp,%eax
  100308:	6a 00                	push   $0x0
  10030a:	6a 20                	push   $0x20
  10030c:	e9 5f fe ff ff       	jmp    100170 <pre_handle>

00100311 <load_idt>:
  100311:	8b 44 24 04          	mov    0x4(%esp),%eax
  100315:	0f 01 18             	lidtl  (%eax)
  100318:	c3                   	ret    
  100319:	66 90                	xchg   %ax,%ax
  10031b:	66 90                	xchg   %ax,%ax
  10031d:	66 90                	xchg   %ax,%ax
  10031f:	90                   	nop

00100320 <get_esp>:
  100320:	89 e0                	mov    %esp,%eax
  100322:	c3                   	ret    

00100323 <get_eflags>:
  100323:	9c                   	pushf  
  100324:	58                   	pop    %eax
  100325:	c3                   	ret    

00100326 <switch_to>:
  100326:	89 60 1c             	mov    %esp,0x1c(%eax)
  100329:	8b 44 24 04          	mov    0x4(%esp),%eax
  10032d:	89 28                	mov    %ebp,(%eax)
  10032f:	89 58 04             	mov    %ebx,0x4(%eax)
  100332:	89 48 08             	mov    %ecx,0x8(%eax)
  100335:	89 50 0c             	mov    %edx,0xc(%eax)
  100338:	89 70 10             	mov    %esi,0x10(%eax)
  10033b:	89 78 14             	mov    %edi,0x14(%eax)
  10033e:	53                   	push   %ebx
  10033f:	89 c3                	mov    %eax,%ebx
  100341:	9c                   	pushf  
  100342:	58                   	pop    %eax
  100343:	89 43 18             	mov    %eax,0x18(%ebx)
  100346:	89 d8                	mov    %ebx,%eax
  100348:	5b                   	pop    %ebx
  100349:	8b 44 24 08          	mov    0x8(%esp),%eax
  10034d:	8b 60 1c             	mov    0x1c(%eax),%esp
  100350:	8b 28                	mov    (%eax),%ebp
  100352:	8b 58 04             	mov    0x4(%eax),%ebx
  100355:	8b 48 08             	mov    0x8(%eax),%ecx
  100358:	8b 50 0c             	mov    0xc(%eax),%edx
  10035b:	8b 70 10             	mov    0x10(%eax),%esi
  10035e:	8b 78 14             	mov    0x14(%eax),%edi
  100361:	83 c0 18             	add    $0x18,%eax
  100364:	ff 30                	pushl  (%eax)
  100366:	9d                   	popf   
  100367:	b0 20                	mov    $0x20,%al
  100369:	e6 a0                	out    %al,$0xa0
  10036b:	e6 20                	out    %al,$0x20
  10036d:	c3                   	ret    

0010036e <move_cursor>:
  10036e:	55                   	push   %ebp
  10036f:	89 e5                	mov    %esp,%ebp
  100371:	53                   	push   %ebx
  100372:	83 ec 14             	sub    $0x14,%esp
  100375:	e8 8a 3c 00 00       	call   104004 <__x86.get_pc_thunk.bx>
  10037a:	81 c3 86 4c 00 00    	add    $0x4c86,%ebx
  100380:	0f b6 83 01 10 08 00 	movzbl 0x81001(%ebx),%eax
  100387:	0f b6 d0             	movzbl %al,%edx
  10038a:	89 d0                	mov    %edx,%eax
  10038c:	c1 e0 02             	shl    $0x2,%eax
  10038f:	01 d0                	add    %edx,%eax
  100391:	c1 e0 04             	shl    $0x4,%eax
  100394:	89 c2                	mov    %eax,%edx
  100396:	0f b6 83 00 10 08 00 	movzbl 0x81000(%ebx),%eax
  10039d:	0f b6 c0             	movzbl %al,%eax
  1003a0:	01 d0                	add    %edx,%eax
  1003a2:	66 89 45 f6          	mov    %ax,-0xa(%ebp)
  1003a6:	83 ec 08             	sub    $0x8,%esp
  1003a9:	6a 0e                	push   $0xe
  1003ab:	68 d4 03 00 00       	push   $0x3d4
  1003b0:	e8 46 04 00 00       	call   1007fb <outb>
  1003b5:	83 c4 10             	add    $0x10,%esp
  1003b8:	0f b7 45 f6          	movzwl -0xa(%ebp),%eax
  1003bc:	66 c1 e8 08          	shr    $0x8,%ax
  1003c0:	0f b6 c0             	movzbl %al,%eax
  1003c3:	83 ec 08             	sub    $0x8,%esp
  1003c6:	50                   	push   %eax
  1003c7:	68 d5 03 00 00       	push   $0x3d5
  1003cc:	e8 2a 04 00 00       	call   1007fb <outb>
  1003d1:	83 c4 10             	add    $0x10,%esp
  1003d4:	83 ec 08             	sub    $0x8,%esp
  1003d7:	6a 0f                	push   $0xf
  1003d9:	68 d4 03 00 00       	push   $0x3d4
  1003de:	e8 18 04 00 00       	call   1007fb <outb>
  1003e3:	83 c4 10             	add    $0x10,%esp
  1003e6:	0f b7 45 f6          	movzwl -0xa(%ebp),%eax
  1003ea:	0f b6 c0             	movzbl %al,%eax
  1003ed:	83 ec 08             	sub    $0x8,%esp
  1003f0:	50                   	push   %eax
  1003f1:	68 d5 03 00 00       	push   $0x3d5
  1003f6:	e8 00 04 00 00       	call   1007fb <outb>
  1003fb:	83 c4 10             	add    $0x10,%esp
  1003fe:	90                   	nop
  1003ff:	8b 5d fc             	mov    -0x4(%ebp),%ebx
  100402:	c9                   	leave  
  100403:	c3                   	ret    

00100404 <move_cursor_by_XY>:
  100404:	55                   	push   %ebp
  100405:	89 e5                	mov    %esp,%ebp
  100407:	83 ec 18             	sub    $0x18,%esp
  10040a:	e8 f1 3b 00 00       	call   104000 <__x86.get_pc_thunk.ax>
  10040f:	05 f1 4b 00 00       	add    $0x4bf1,%eax
  100414:	8b 4d 08             	mov    0x8(%ebp),%ecx
  100417:	8b 55 0c             	mov    0xc(%ebp),%edx
  10041a:	88 4d f4             	mov    %cl,-0xc(%ebp)
  10041d:	88 55 f0             	mov    %dl,-0x10(%ebp)
  100420:	80 7d f4 4f          	cmpb   $0x4f,-0xc(%ebp)
  100424:	77 21                	ja     100447 <move_cursor_by_XY+0x43>
  100426:	80 7d f0 18          	cmpb   $0x18,-0x10(%ebp)
  10042a:	77 1b                	ja     100447 <move_cursor_by_XY+0x43>
  10042c:	0f b6 55 f4          	movzbl -0xc(%ebp),%edx
  100430:	88 90 00 10 08 00    	mov    %dl,0x81000(%eax)
  100436:	0f b6 55 f0          	movzbl -0x10(%ebp),%edx
  10043a:	88 90 01 10 08 00    	mov    %dl,0x81001(%eax)
  100440:	e8 29 ff ff ff       	call   10036e <move_cursor>
  100445:	eb 01                	jmp    100448 <move_cursor_by_XY+0x44>
  100447:	90                   	nop
  100448:	c9                   	leave  
  100449:	c3                   	ret    

0010044a <clear_screen>:
  10044a:	55                   	push   %ebp
  10044b:	89 e5                	mov    %esp,%ebp
  10044d:	53                   	push   %ebx
  10044e:	83 ec 14             	sub    $0x14,%esp
  100451:	e8 ae 3b 00 00       	call   104004 <__x86.get_pc_thunk.bx>
  100456:	81 c3 aa 4b 00 00    	add    $0x4baa,%ebx
  10045c:	c6 83 00 10 08 00 00 	movb   $0x0,0x81000(%ebx)
  100463:	c6 83 01 10 08 00 00 	movb   $0x0,0x81001(%ebx)
  10046a:	c7 45 f4 00 00 00 00 	movl   $0x0,-0xc(%ebp)
  100471:	eb 28                	jmp    10049b <clear_screen+0x51>
  100473:	c7 45 f0 00 00 00 00 	movl   $0x0,-0x10(%ebp)
  10047a:	eb 15                	jmp    100491 <clear_screen+0x47>
  10047c:	83 ec 04             	sub    $0x4,%esp
  10047f:	6a 0f                	push   $0xf
  100481:	6a 00                	push   $0x0
  100483:	6a 00                	push   $0x0
  100485:	e8 2b 01 00 00       	call   1005b5 <vga_putc>
  10048a:	83 c4 10             	add    $0x10,%esp
  10048d:	83 45 f0 01          	addl   $0x1,-0x10(%ebp)
  100491:	83 7d f0 4f          	cmpl   $0x4f,-0x10(%ebp)
  100495:	7e e5                	jle    10047c <clear_screen+0x32>
  100497:	83 45 f4 01          	addl   $0x1,-0xc(%ebp)
  10049b:	83 7d f4 18          	cmpl   $0x18,-0xc(%ebp)
  10049f:	7e d2                	jle    100473 <clear_screen+0x29>
  1004a1:	c6 83 00 10 08 00 00 	movb   $0x0,0x81000(%ebx)
  1004a8:	c6 83 01 10 08 00 00 	movb   $0x0,0x81001(%ebx)
  1004af:	e8 ba fe ff ff       	call   10036e <move_cursor>
  1004b4:	90                   	nop
  1004b5:	8b 5d fc             	mov    -0x4(%ebp),%ebx
  1004b8:	c9                   	leave  
  1004b9:	c3                   	ret    

001004ba <screen_uproll_once>:
  1004ba:	55                   	push   %ebp
  1004bb:	89 e5                	mov    %esp,%ebp
  1004bd:	53                   	push   %ebx
  1004be:	83 ec 24             	sub    $0x24,%esp
  1004c1:	e8 3a 3b 00 00       	call   104000 <__x86.get_pc_thunk.ax>
  1004c6:	05 3a 4b 00 00       	add    $0x4b3a,%eax
  1004cb:	c7 45 f4 01 00 00 00 	movl   $0x1,-0xc(%ebp)
  1004d2:	eb 70                	jmp    100544 <screen_uproll_once+0x8a>
  1004d4:	c7 45 f0 00 00 00 00 	movl   $0x0,-0x10(%ebp)
  1004db:	eb 5d                	jmp    10053a <screen_uproll_once+0x80>
  1004dd:	8b 55 f4             	mov    -0xc(%ebp),%edx
  1004e0:	89 d1                	mov    %edx,%ecx
  1004e2:	89 ca                	mov    %ecx,%edx
  1004e4:	c1 e2 02             	shl    $0x2,%edx
  1004e7:	01 ca                	add    %ecx,%edx
  1004e9:	c1 e2 04             	shl    $0x4,%edx
  1004ec:	89 d1                	mov    %edx,%ecx
  1004ee:	8b 55 f0             	mov    -0x10(%ebp),%edx
  1004f1:	01 ca                	add    %ecx,%edx
  1004f3:	66 89 55 e8          	mov    %dx,-0x18(%ebp)
  1004f7:	8b 55 f4             	mov    -0xc(%ebp),%edx
  1004fa:	83 ea 01             	sub    $0x1,%edx
  1004fd:	89 d1                	mov    %edx,%ecx
  1004ff:	89 ca                	mov    %ecx,%edx
  100501:	c1 e2 02             	shl    $0x2,%edx
  100504:	01 ca                	add    %ecx,%edx
  100506:	c1 e2 04             	shl    $0x4,%edx
  100509:	89 d1                	mov    %edx,%ecx
  10050b:	8b 55 f0             	mov    -0x10(%ebp),%edx
  10050e:	01 ca                	add    %ecx,%edx
  100510:	66 89 55 e6          	mov    %dx,-0x1a(%ebp)
  100514:	8b 90 10 f0 ff ff    	mov    -0xff0(%eax),%edx
  10051a:	0f b7 4d e8          	movzwl -0x18(%ebp),%ecx
  10051e:	01 c9                	add    %ecx,%ecx
  100520:	01 ca                	add    %ecx,%edx
  100522:	8b 88 10 f0 ff ff    	mov    -0xff0(%eax),%ecx
  100528:	0f b7 5d e6          	movzwl -0x1a(%ebp),%ebx
  10052c:	01 db                	add    %ebx,%ebx
  10052e:	01 d9                	add    %ebx,%ecx
  100530:	0f b7 12             	movzwl (%edx),%edx
  100533:	66 89 11             	mov    %dx,(%ecx)
  100536:	83 45 f0 01          	addl   $0x1,-0x10(%ebp)
  10053a:	83 7d f0 4f          	cmpl   $0x4f,-0x10(%ebp)
  10053e:	7e 9d                	jle    1004dd <screen_uproll_once+0x23>
  100540:	83 45 f4 01          	addl   $0x1,-0xc(%ebp)
  100544:	83 7d f4 18          	cmpl   $0x18,-0xc(%ebp)
  100548:	7e 8a                	jle    1004d4 <screen_uproll_once+0x1a>
  10054a:	c7 45 ec 00 00 00 00 	movl   $0x0,-0x14(%ebp)
  100551:	eb 35                	jmp    100588 <screen_uproll_once+0xce>
  100553:	8b 55 ec             	mov    -0x14(%ebp),%edx
  100556:	66 81 c2 80 07       	add    $0x780,%dx
  10055b:	66 89 55 ea          	mov    %dx,-0x16(%ebp)
  10055f:	8b 90 10 f0 ff ff    	mov    -0xff0(%eax),%edx
  100565:	0f b7 4d ea          	movzwl -0x16(%ebp),%ecx
  100569:	01 c9                	add    %ecx,%ecx
  10056b:	01 ca                	add    %ecx,%edx
  10056d:	c6 02 00             	movb   $0x0,(%edx)
  100570:	8b 90 10 f0 ff ff    	mov    -0xff0(%eax),%edx
  100576:	0f b7 4d ea          	movzwl -0x16(%ebp),%ecx
  10057a:	01 c9                	add    %ecx,%ecx
  10057c:	83 c1 01             	add    $0x1,%ecx
  10057f:	01 ca                	add    %ecx,%edx
  100581:	c6 02 0f             	movb   $0xf,(%edx)
  100584:	83 45 ec 01          	addl   $0x1,-0x14(%ebp)
  100588:	83 7d ec 4f          	cmpl   $0x4f,-0x14(%ebp)
  10058c:	7e c5                	jle    100553 <screen_uproll_once+0x99>
  10058e:	0f b6 90 01 10 08 00 	movzbl 0x81001(%eax),%edx
  100595:	84 d2                	test   %dl,%dl
  100597:	74 15                	je     1005ae <screen_uproll_once+0xf4>
  100599:	0f b6 90 01 10 08 00 	movzbl 0x81001(%eax),%edx
  1005a0:	83 ea 01             	sub    $0x1,%edx
  1005a3:	88 90 01 10 08 00    	mov    %dl,0x81001(%eax)
  1005a9:	e8 c0 fd ff ff       	call   10036e <move_cursor>
  1005ae:	90                   	nop
  1005af:	83 c4 24             	add    $0x24,%esp
  1005b2:	5b                   	pop    %ebx
  1005b3:	5d                   	pop    %ebp
  1005b4:	c3                   	ret    

001005b5 <vga_putc>:
  1005b5:	55                   	push   %ebp
  1005b6:	89 e5                	mov    %esp,%ebp
  1005b8:	53                   	push   %ebx
  1005b9:	83 ec 24             	sub    $0x24,%esp
  1005bc:	e8 43 3a 00 00       	call   104004 <__x86.get_pc_thunk.bx>
  1005c1:	81 c3 3f 4a 00 00    	add    $0x4a3f,%ebx
  1005c7:	8b 45 08             	mov    0x8(%ebp),%eax
  1005ca:	88 45 e4             	mov    %al,-0x1c(%ebp)
  1005cd:	0f b6 83 01 10 08 00 	movzbl 0x81001(%ebx),%eax
  1005d4:	0f b6 d0             	movzbl %al,%edx
  1005d7:	89 d0                	mov    %edx,%eax
  1005d9:	c1 e0 02             	shl    $0x2,%eax
  1005dc:	01 d0                	add    %edx,%eax
  1005de:	c1 e0 04             	shl    $0x4,%eax
  1005e1:	89 c2                	mov    %eax,%edx
  1005e3:	0f b6 83 00 10 08 00 	movzbl 0x81000(%ebx),%eax
  1005ea:	0f b6 c0             	movzbl %al,%eax
  1005ed:	01 d0                	add    %edx,%eax
  1005ef:	66 89 45 f6          	mov    %ax,-0xa(%ebp)
  1005f3:	8b 83 10 f0 ff ff    	mov    -0xff0(%ebx),%eax
  1005f9:	0f b7 55 f6          	movzwl -0xa(%ebp),%edx
  1005fd:	01 d2                	add    %edx,%edx
  1005ff:	01 c2                	add    %eax,%edx
  100601:	0f b6 45 e4          	movzbl -0x1c(%ebp),%eax
  100605:	88 02                	mov    %al,(%edx)
  100607:	8b 45 0c             	mov    0xc(%ebp),%eax
  10060a:	c1 e0 04             	shl    $0x4,%eax
  10060d:	89 c2                	mov    %eax,%edx
  10060f:	8b 45 10             	mov    0x10(%ebp),%eax
  100612:	83 e0 0f             	and    $0xf,%eax
  100615:	89 d1                	mov    %edx,%ecx
  100617:	09 c1                	or     %eax,%ecx
  100619:	8b 83 10 f0 ff ff    	mov    -0xff0(%ebx),%eax
  10061f:	0f b7 55 f6          	movzwl -0xa(%ebp),%edx
  100623:	01 d2                	add    %edx,%edx
  100625:	83 c2 01             	add    $0x1,%edx
  100628:	01 d0                	add    %edx,%eax
  10062a:	89 ca                	mov    %ecx,%edx
  10062c:	88 10                	mov    %dl,(%eax)
  10062e:	0f b6 83 00 10 08 00 	movzbl 0x81000(%ebx),%eax
  100635:	3c 4f                	cmp    $0x4f,%al
  100637:	75 39                	jne    100672 <vga_putc+0xbd>
  100639:	0f b6 83 01 10 08 00 	movzbl 0x81001(%ebx),%eax
  100640:	3c 18                	cmp    $0x18,%al
  100642:	75 15                	jne    100659 <vga_putc+0xa4>
  100644:	e8 71 fe ff ff       	call   1004ba <screen_uproll_once>
  100649:	c6 83 00 10 08 00 00 	movb   $0x0,0x81000(%ebx)
  100650:	c6 83 01 10 08 00 18 	movb   $0x18,0x81001(%ebx)
  100657:	eb 29                	jmp    100682 <vga_putc+0xcd>
  100659:	c6 83 00 10 08 00 00 	movb   $0x0,0x81000(%ebx)
  100660:	0f b6 83 01 10 08 00 	movzbl 0x81001(%ebx),%eax
  100667:	83 c0 01             	add    $0x1,%eax
  10066a:	88 83 01 10 08 00    	mov    %al,0x81001(%ebx)
  100670:	eb 10                	jmp    100682 <vga_putc+0xcd>
  100672:	0f b6 83 00 10 08 00 	movzbl 0x81000(%ebx),%eax
  100679:	83 c0 01             	add    $0x1,%eax
  10067c:	88 83 00 10 08 00    	mov    %al,0x81000(%ebx)
  100682:	e8 e7 fc ff ff       	call   10036e <move_cursor>
  100687:	90                   	nop
  100688:	83 c4 24             	add    $0x24,%esp
  10068b:	5b                   	pop    %ebx
  10068c:	5d                   	pop    %ebp
  10068d:	c3                   	ret    

0010068e <kputc_color>:
  10068e:	55                   	push   %ebp
  10068f:	89 e5                	mov    %esp,%ebp
  100691:	53                   	push   %ebx
  100692:	83 ec 24             	sub    $0x24,%esp
  100695:	e8 6a 39 00 00       	call   104004 <__x86.get_pc_thunk.bx>
  10069a:	81 c3 66 49 00 00    	add    $0x4966,%ebx
  1006a0:	8b 45 08             	mov    0x8(%ebp),%eax
  1006a3:	88 45 e4             	mov    %al,-0x1c(%ebp)
  1006a6:	0f be 45 e4          	movsbl -0x1c(%ebp),%eax
  1006aa:	83 f8 09             	cmp    $0x9,%eax
  1006ad:	74 07                	je     1006b6 <kputc_color+0x28>
  1006af:	83 f8 0a             	cmp    $0xa,%eax
  1006b2:	74 33                	je     1006e7 <kputc_color+0x59>
  1006b4:	eb 79                	jmp    10072f <kputc_color+0xa1>
  1006b6:	c7 45 f4 00 00 00 00 	movl   $0x0,-0xc(%ebp)
  1006bd:	eb 17                	jmp    1006d6 <kputc_color+0x48>
  1006bf:	83 ec 04             	sub    $0x4,%esp
  1006c2:	ff 75 10             	pushl  0x10(%ebp)
  1006c5:	ff 75 0c             	pushl  0xc(%ebp)
  1006c8:	6a 00                	push   $0x0
  1006ca:	e8 e6 fe ff ff       	call   1005b5 <vga_putc>
  1006cf:	83 c4 10             	add    $0x10,%esp
  1006d2:	83 45 f4 01          	addl   $0x1,-0xc(%ebp)
  1006d6:	0f b6 83 0c f0 ff ff 	movzbl -0xff4(%ebx),%eax
  1006dd:	0f b6 c0             	movzbl %al,%eax
  1006e0:	39 45 f4             	cmp    %eax,-0xc(%ebp)
  1006e3:	7c da                	jl     1006bf <kputc_color+0x31>
  1006e5:	eb 5e                	jmp    100745 <kputc_color+0xb7>
  1006e7:	0f b6 83 00 10 08 00 	movzbl 0x81000(%ebx),%eax
  1006ee:	ba 50 00 00 00       	mov    $0x50,%edx
  1006f3:	29 c2                	sub    %eax,%edx
  1006f5:	89 d0                	mov    %edx,%eax
  1006f7:	88 45 f3             	mov    %al,-0xd(%ebp)
  1006fa:	80 7d f3 00          	cmpb   $0x0,-0xd(%ebp)
  1006fe:	75 04                	jne    100704 <kputc_color+0x76>
  100700:	c6 45 f3 50          	movb   $0x50,-0xd(%ebp)
  100704:	c7 45 ec 00 00 00 00 	movl   $0x0,-0x14(%ebp)
  10070b:	eb 17                	jmp    100724 <kputc_color+0x96>
  10070d:	83 ec 04             	sub    $0x4,%esp
  100710:	ff 75 10             	pushl  0x10(%ebp)
  100713:	ff 75 0c             	pushl  0xc(%ebp)
  100716:	6a 00                	push   $0x0
  100718:	e8 98 fe ff ff       	call   1005b5 <vga_putc>
  10071d:	83 c4 10             	add    $0x10,%esp
  100720:	83 45 ec 01          	addl   $0x1,-0x14(%ebp)
  100724:	0f b6 45 f3          	movzbl -0xd(%ebp),%eax
  100728:	39 45 ec             	cmp    %eax,-0x14(%ebp)
  10072b:	7c e0                	jl     10070d <kputc_color+0x7f>
  10072d:	eb 16                	jmp    100745 <kputc_color+0xb7>
  10072f:	0f be 45 e4          	movsbl -0x1c(%ebp),%eax
  100733:	83 ec 04             	sub    $0x4,%esp
  100736:	ff 75 10             	pushl  0x10(%ebp)
  100739:	ff 75 0c             	pushl  0xc(%ebp)
  10073c:	50                   	push   %eax
  10073d:	e8 73 fe ff ff       	call   1005b5 <vga_putc>
  100742:	83 c4 10             	add    $0x10,%esp
  100745:	90                   	nop
  100746:	8b 5d fc             	mov    -0x4(%ebp),%ebx
  100749:	c9                   	leave  
  10074a:	c3                   	ret    

0010074b <kputc>:
  10074b:	55                   	push   %ebp
  10074c:	89 e5                	mov    %esp,%ebp
  10074e:	83 ec 18             	sub    $0x18,%esp
  100751:	e8 aa 38 00 00       	call   104000 <__x86.get_pc_thunk.ax>
  100756:	05 aa 48 00 00       	add    $0x48aa,%eax
  10075b:	8b 45 08             	mov    0x8(%ebp),%eax
  10075e:	88 45 f4             	mov    %al,-0xc(%ebp)
  100761:	0f be 45 f4          	movsbl -0xc(%ebp),%eax
  100765:	83 ec 04             	sub    $0x4,%esp
  100768:	6a 0f                	push   $0xf
  10076a:	6a 00                	push   $0x0
  10076c:	50                   	push   %eax
  10076d:	e8 1c ff ff ff       	call   10068e <kputc_color>
  100772:	83 c4 10             	add    $0x10,%esp
  100775:	90                   	nop
  100776:	c9                   	leave  
  100777:	c3                   	ret    

00100778 <kputs_color>:
  100778:	55                   	push   %ebp
  100779:	89 e5                	mov    %esp,%ebp
  10077b:	83 ec 18             	sub    $0x18,%esp
  10077e:	e8 7d 38 00 00       	call   104000 <__x86.get_pc_thunk.ax>
  100783:	05 7d 48 00 00       	add    $0x487d,%eax
  100788:	8b 45 08             	mov    0x8(%ebp),%eax
  10078b:	89 45 f4             	mov    %eax,-0xc(%ebp)
  10078e:	eb 21                	jmp    1007b1 <kputs_color+0x39>
  100790:	8b 45 f4             	mov    -0xc(%ebp),%eax
  100793:	8d 50 01             	lea    0x1(%eax),%edx
  100796:	89 55 f4             	mov    %edx,-0xc(%ebp)
  100799:	0f b6 00             	movzbl (%eax),%eax
  10079c:	0f be c0             	movsbl %al,%eax
  10079f:	83 ec 04             	sub    $0x4,%esp
  1007a2:	ff 75 10             	pushl  0x10(%ebp)
  1007a5:	ff 75 0c             	pushl  0xc(%ebp)
  1007a8:	50                   	push   %eax
  1007a9:	e8 e0 fe ff ff       	call   10068e <kputc_color>
  1007ae:	83 c4 10             	add    $0x10,%esp
  1007b1:	8b 45 f4             	mov    -0xc(%ebp),%eax
  1007b4:	0f b6 00             	movzbl (%eax),%eax
  1007b7:	84 c0                	test   %al,%al
  1007b9:	75 d5                	jne    100790 <kputs_color+0x18>
  1007bb:	90                   	nop
  1007bc:	c9                   	leave  
  1007bd:	c3                   	ret    

001007be <kputs>:
  1007be:	55                   	push   %ebp
  1007bf:	89 e5                	mov    %esp,%ebp
  1007c1:	83 ec 08             	sub    $0x8,%esp
  1007c4:	e8 37 38 00 00       	call   104000 <__x86.get_pc_thunk.ax>
  1007c9:	05 37 48 00 00       	add    $0x4837,%eax
  1007ce:	83 ec 04             	sub    $0x4,%esp
  1007d1:	6a 0f                	push   $0xf
  1007d3:	6a 00                	push   $0x0
  1007d5:	ff 75 08             	pushl  0x8(%ebp)
  1007d8:	e8 9b ff ff ff       	call   100778 <kputs_color>
  1007dd:	83 c4 10             	add    $0x10,%esp
  1007e0:	90                   	nop
  1007e1:	c9                   	leave  
  1007e2:	c3                   	ret    

001007e3 <vga_init>:
  1007e3:	55                   	push   %ebp
  1007e4:	89 e5                	mov    %esp,%ebp
  1007e6:	83 ec 08             	sub    $0x8,%esp
  1007e9:	e8 12 38 00 00       	call   104000 <__x86.get_pc_thunk.ax>
  1007ee:	05 12 48 00 00       	add    $0x4812,%eax
  1007f3:	e8 52 fc ff ff       	call   10044a <clear_screen>
  1007f8:	90                   	nop
  1007f9:	c9                   	leave  
  1007fa:	c3                   	ret    

001007fb <outb>:
  1007fb:	55                   	push   %ebp
  1007fc:	89 e5                	mov    %esp,%ebp
  1007fe:	83 ec 08             	sub    $0x8,%esp
  100801:	e8 fa 37 00 00       	call   104000 <__x86.get_pc_thunk.ax>
  100806:	05 fa 47 00 00       	add    $0x47fa,%eax
  10080b:	8b 55 08             	mov    0x8(%ebp),%edx
  10080e:	8b 45 0c             	mov    0xc(%ebp),%eax
  100811:	66 89 55 fc          	mov    %dx,-0x4(%ebp)
  100815:	88 45 f8             	mov    %al,-0x8(%ebp)
  100818:	0f b7 55 fc          	movzwl -0x4(%ebp),%edx
  10081c:	0f b6 45 f8          	movzbl -0x8(%ebp),%eax
  100820:	ee                   	out    %al,(%dx)
  100821:	90                   	nop
  100822:	c9                   	leave  
  100823:	c3                   	ret    

00100824 <inb>:
  100824:	55                   	push   %ebp
  100825:	89 e5                	mov    %esp,%ebp
  100827:	83 ec 14             	sub    $0x14,%esp
  10082a:	e8 d1 37 00 00       	call   104000 <__x86.get_pc_thunk.ax>
  10082f:	05 d1 47 00 00       	add    $0x47d1,%eax
  100834:	8b 45 08             	mov    0x8(%ebp),%eax
  100837:	66 89 45 ec          	mov    %ax,-0x14(%ebp)
  10083b:	0f b7 45 ec          	movzwl -0x14(%ebp),%eax
  10083f:	89 c2                	mov    %eax,%edx
  100841:	ec                   	in     (%dx),%al
  100842:	88 45 ff             	mov    %al,-0x1(%ebp)
  100845:	0f b6 45 ff          	movzbl -0x1(%ebp),%eax
  100849:	c9                   	leave  
  10084a:	c3                   	ret    

0010084b <inw>:
  10084b:	55                   	push   %ebp
  10084c:	89 e5                	mov    %esp,%ebp
  10084e:	83 ec 14             	sub    $0x14,%esp
  100851:	e8 aa 37 00 00       	call   104000 <__x86.get_pc_thunk.ax>
  100856:	05 aa 47 00 00       	add    $0x47aa,%eax
  10085b:	8b 45 08             	mov    0x8(%ebp),%eax
  10085e:	66 89 45 ec          	mov    %ax,-0x14(%ebp)
  100862:	0f b7 45 ec          	movzwl -0x14(%ebp),%eax
  100866:	89 c2                	mov    %eax,%edx
  100868:	66 ed                	in     (%dx),%ax
  10086a:	66 89 45 fe          	mov    %ax,-0x2(%ebp)
  10086e:	0f b7 45 fe          	movzwl -0x2(%ebp),%eax
  100872:	c9                   	leave  
  100873:	c3                   	ret    

00100874 <insert_str>:
  100874:	55                   	push   %ebp
  100875:	89 e5                	mov    %esp,%ebp
  100877:	57                   	push   %edi
  100878:	53                   	push   %ebx
  100879:	83 ec 70             	sub    $0x70,%esp
  10087c:	e8 83 37 00 00       	call   104004 <__x86.get_pc_thunk.bx>
  100881:	81 c3 7f 47 00 00    	add    $0x477f,%ebx
  100887:	8d 55 90             	lea    -0x70(%ebp),%edx
  10088a:	b8 00 00 00 00       	mov    $0x0,%eax
  10088f:	b9 19 00 00 00       	mov    $0x19,%ecx
  100894:	89 d7                	mov    %edx,%edi
  100896:	f3 ab                	rep stos %eax,%es:(%edi)
  100898:	8d 45 90             	lea    -0x70(%ebp),%eax
  10089b:	89 45 f4             	mov    %eax,-0xc(%ebp)
  10089e:	8b 45 10             	mov    0x10(%ebp),%eax
  1008a1:	8d 50 02             	lea    0x2(%eax),%edx
  1008a4:	8b 45 08             	mov    0x8(%ebp),%eax
  1008a7:	01 d0                	add    %edx,%eax
  1008a9:	83 ec 08             	sub    $0x8,%esp
  1008ac:	50                   	push   %eax
  1008ad:	ff 75 f4             	pushl  -0xc(%ebp)
  1008b0:	e8 09 08 00 00       	call   1010be <strcpy>
  1008b5:	83 c4 10             	add    $0x10,%esp
  1008b8:	83 ec 0c             	sub    $0xc,%esp
  1008bb:	ff 75 0c             	pushl  0xc(%ebp)
  1008be:	e8 ca 07 00 00       	call   10108d <strlen>
  1008c3:	83 c4 10             	add    $0x10,%esp
  1008c6:	89 c1                	mov    %eax,%ecx
  1008c8:	8b 55 08             	mov    0x8(%ebp),%edx
  1008cb:	8b 45 10             	mov    0x10(%ebp),%eax
  1008ce:	01 d0                	add    %edx,%eax
  1008d0:	83 ec 04             	sub    $0x4,%esp
  1008d3:	51                   	push   %ecx
  1008d4:	ff 75 0c             	pushl  0xc(%ebp)
  1008d7:	50                   	push   %eax
  1008d8:	e8 c5 06 00 00       	call   100fa2 <memcpy>
  1008dd:	83 c4 10             	add    $0x10,%esp
  1008e0:	83 ec 0c             	sub    $0xc,%esp
  1008e3:	ff 75 0c             	pushl  0xc(%ebp)
  1008e6:	e8 a2 07 00 00       	call   10108d <strlen>
  1008eb:	83 c4 10             	add    $0x10,%esp
  1008ee:	89 c2                	mov    %eax,%edx
  1008f0:	8b 45 10             	mov    0x10(%ebp),%eax
  1008f3:	01 c2                	add    %eax,%edx
  1008f5:	8b 45 08             	mov    0x8(%ebp),%eax
  1008f8:	01 d0                	add    %edx,%eax
  1008fa:	c6 00 00             	movb   $0x0,(%eax)
  1008fd:	83 ec 08             	sub    $0x8,%esp
  100900:	ff 75 f4             	pushl  -0xc(%ebp)
  100903:	ff 75 08             	pushl  0x8(%ebp)
  100906:	e8 f9 07 00 00       	call   101104 <strcat>
  10090b:	83 c4 10             	add    $0x10,%esp
  10090e:	90                   	nop
  10090f:	8d 65 f8             	lea    -0x8(%ebp),%esp
  100912:	5b                   	pop    %ebx
  100913:	5f                   	pop    %edi
  100914:	5d                   	pop    %ebp
  100915:	c3                   	ret    

00100916 <printk>:
  100916:	55                   	push   %ebp
  100917:	89 e5                	mov    %esp,%ebp
  100919:	53                   	push   %ebx
  10091a:	83 ec 34             	sub    $0x34,%esp
  10091d:	e8 e2 36 00 00       	call   104004 <__x86.get_pc_thunk.bx>
  100922:	81 c3 de 46 00 00    	add    $0x46de,%ebx
  100928:	8d 83 20 10 08 00    	lea    0x81020(%ebx),%eax
  10092e:	89 45 f0             	mov    %eax,-0x10(%ebp)
  100931:	83 ec 08             	sub    $0x8,%esp
  100934:	ff 75 08             	pushl  0x8(%ebp)
  100937:	ff 75 f0             	pushl  -0x10(%ebp)
  10093a:	e8 7f 07 00 00       	call   1010be <strcpy>
  10093f:	83 c4 10             	add    $0x10,%esp
  100942:	8d 45 0c             	lea    0xc(%ebp),%eax
  100945:	89 45 cc             	mov    %eax,-0x34(%ebp)
  100948:	c7 45 f4 00 00 00 00 	movl   $0x0,-0xc(%ebp)
  10094f:	e9 9e 01 00 00       	jmp    100af2 <printk+0x1dc>
  100954:	8b 55 f4             	mov    -0xc(%ebp),%edx
  100957:	8b 45 f0             	mov    -0x10(%ebp),%eax
  10095a:	01 d0                	add    %edx,%eax
  10095c:	89 45 ec             	mov    %eax,-0x14(%ebp)
  10095f:	8b 45 ec             	mov    -0x14(%ebp),%eax
  100962:	0f b6 00             	movzbl (%eax),%eax
  100965:	3c 25                	cmp    $0x25,%al
  100967:	0f 85 81 01 00 00    	jne    100aee <printk+0x1d8>
  10096d:	8b 45 ec             	mov    -0x14(%ebp),%eax
  100970:	83 c0 01             	add    $0x1,%eax
  100973:	0f b6 00             	movzbl (%eax),%eax
  100976:	3c 73                	cmp    $0x73,%al
  100978:	75 43                	jne    1009bd <printk+0xa7>
  10097a:	8b 45 cc             	mov    -0x34(%ebp),%eax
  10097d:	8d 50 04             	lea    0x4(%eax),%edx
  100980:	89 55 cc             	mov    %edx,-0x34(%ebp)
  100983:	8b 00                	mov    (%eax),%eax
  100985:	89 45 d0             	mov    %eax,-0x30(%ebp)
  100988:	8b 45 f4             	mov    -0xc(%ebp),%eax
  10098b:	83 ec 04             	sub    $0x4,%esp
  10098e:	50                   	push   %eax
  10098f:	ff 75 d0             	pushl  -0x30(%ebp)
  100992:	ff 75 f0             	pushl  -0x10(%ebp)
  100995:	e8 da fe ff ff       	call   100874 <insert_str>
  10099a:	83 c4 10             	add    $0x10,%esp
  10099d:	83 ec 0c             	sub    $0xc,%esp
  1009a0:	ff 75 d0             	pushl  -0x30(%ebp)
  1009a3:	e8 e5 06 00 00       	call   10108d <strlen>
  1009a8:	83 c4 10             	add    $0x10,%esp
  1009ab:	89 c2                	mov    %eax,%edx
  1009ad:	8b 45 f4             	mov    -0xc(%ebp),%eax
  1009b0:	01 d0                	add    %edx,%eax
  1009b2:	83 e8 01             	sub    $0x1,%eax
  1009b5:	89 45 f4             	mov    %eax,-0xc(%ebp)
  1009b8:	e9 31 01 00 00       	jmp    100aee <printk+0x1d8>
  1009bd:	8b 45 ec             	mov    -0x14(%ebp),%eax
  1009c0:	83 c0 01             	add    $0x1,%eax
  1009c3:	0f b6 00             	movzbl (%eax),%eax
  1009c6:	3c 64                	cmp    $0x64,%al
  1009c8:	75 55                	jne    100a1f <printk+0x109>
  1009ca:	8b 45 cc             	mov    -0x34(%ebp),%eax
  1009cd:	8d 50 04             	lea    0x4(%eax),%edx
  1009d0:	89 55 cc             	mov    %edx,-0x34(%ebp)
  1009d3:	8b 00                	mov    (%eax),%eax
  1009d5:	89 45 d8             	mov    %eax,-0x28(%ebp)
  1009d8:	8b 45 d8             	mov    -0x28(%ebp),%eax
  1009db:	83 ec 0c             	sub    $0xc,%esp
  1009de:	50                   	push   %eax
  1009df:	e8 59 07 00 00       	call   10113d <uintTostring>
  1009e4:	83 c4 10             	add    $0x10,%esp
  1009e7:	89 45 d4             	mov    %eax,-0x2c(%ebp)
  1009ea:	8b 45 f4             	mov    -0xc(%ebp),%eax
  1009ed:	83 ec 04             	sub    $0x4,%esp
  1009f0:	50                   	push   %eax
  1009f1:	ff 75 d4             	pushl  -0x2c(%ebp)
  1009f4:	ff 75 f0             	pushl  -0x10(%ebp)
  1009f7:	e8 78 fe ff ff       	call   100874 <insert_str>
  1009fc:	83 c4 10             	add    $0x10,%esp
  1009ff:	83 ec 0c             	sub    $0xc,%esp
  100a02:	ff 75 d4             	pushl  -0x2c(%ebp)
  100a05:	e8 83 06 00 00       	call   10108d <strlen>
  100a0a:	83 c4 10             	add    $0x10,%esp
  100a0d:	89 c2                	mov    %eax,%edx
  100a0f:	8b 45 f4             	mov    -0xc(%ebp),%eax
  100a12:	01 d0                	add    %edx,%eax
  100a14:	83 e8 01             	sub    $0x1,%eax
  100a17:	89 45 f4             	mov    %eax,-0xc(%ebp)
  100a1a:	e9 cf 00 00 00       	jmp    100aee <printk+0x1d8>
  100a1f:	8b 45 ec             	mov    -0x14(%ebp),%eax
  100a22:	83 c0 01             	add    $0x1,%eax
  100a25:	0f b6 00             	movzbl (%eax),%eax
  100a28:	3c 63                	cmp    $0x63,%al
  100a2a:	0f 84 be 00 00 00    	je     100aee <printk+0x1d8>
  100a30:	8b 45 ec             	mov    -0x14(%ebp),%eax
  100a33:	83 c0 01             	add    $0x1,%eax
  100a36:	0f b6 00             	movzbl (%eax),%eax
  100a39:	3c 48                	cmp    $0x48,%al
  100a3b:	75 53                	jne    100a90 <printk+0x17a>
  100a3d:	8b 45 cc             	mov    -0x34(%ebp),%eax
  100a40:	8d 50 04             	lea    0x4(%eax),%edx
  100a43:	89 55 cc             	mov    %edx,-0x34(%ebp)
  100a46:	8b 00                	mov    (%eax),%eax
  100a48:	89 45 e0             	mov    %eax,-0x20(%ebp)
  100a4b:	83 ec 08             	sub    $0x8,%esp
  100a4e:	6a 01                	push   $0x1
  100a50:	ff 75 e0             	pushl  -0x20(%ebp)
  100a53:	e8 24 04 00 00       	call   100e7c <num2hexstr>
  100a58:	83 c4 10             	add    $0x10,%esp
  100a5b:	89 45 dc             	mov    %eax,-0x24(%ebp)
  100a5e:	8b 45 f4             	mov    -0xc(%ebp),%eax
  100a61:	83 ec 04             	sub    $0x4,%esp
  100a64:	50                   	push   %eax
  100a65:	ff 75 dc             	pushl  -0x24(%ebp)
  100a68:	ff 75 f0             	pushl  -0x10(%ebp)
  100a6b:	e8 04 fe ff ff       	call   100874 <insert_str>
  100a70:	83 c4 10             	add    $0x10,%esp
  100a73:	83 ec 0c             	sub    $0xc,%esp
  100a76:	ff 75 dc             	pushl  -0x24(%ebp)
  100a79:	e8 0f 06 00 00       	call   10108d <strlen>
  100a7e:	83 c4 10             	add    $0x10,%esp
  100a81:	89 c2                	mov    %eax,%edx
  100a83:	8b 45 f4             	mov    -0xc(%ebp),%eax
  100a86:	01 d0                	add    %edx,%eax
  100a88:	83 e8 01             	sub    $0x1,%eax
  100a8b:	89 45 f4             	mov    %eax,-0xc(%ebp)
  100a8e:	eb 5e                	jmp    100aee <printk+0x1d8>
  100a90:	8b 45 ec             	mov    -0x14(%ebp),%eax
  100a93:	83 c0 01             	add    $0x1,%eax
  100a96:	0f b6 00             	movzbl (%eax),%eax
  100a99:	3c 68                	cmp    $0x68,%al
  100a9b:	75 51                	jne    100aee <printk+0x1d8>
  100a9d:	8b 45 cc             	mov    -0x34(%ebp),%eax
  100aa0:	8d 50 04             	lea    0x4(%eax),%edx
  100aa3:	89 55 cc             	mov    %edx,-0x34(%ebp)
  100aa6:	8b 00                	mov    (%eax),%eax
  100aa8:	89 45 e8             	mov    %eax,-0x18(%ebp)
  100aab:	83 ec 08             	sub    $0x8,%esp
  100aae:	6a 00                	push   $0x0
  100ab0:	ff 75 e8             	pushl  -0x18(%ebp)
  100ab3:	e8 c4 03 00 00       	call   100e7c <num2hexstr>
  100ab8:	83 c4 10             	add    $0x10,%esp
  100abb:	89 45 e4             	mov    %eax,-0x1c(%ebp)
  100abe:	8b 45 f4             	mov    -0xc(%ebp),%eax
  100ac1:	83 ec 04             	sub    $0x4,%esp
  100ac4:	50                   	push   %eax
  100ac5:	ff 75 e4             	pushl  -0x1c(%ebp)
  100ac8:	ff 75 f0             	pushl  -0x10(%ebp)
  100acb:	e8 a4 fd ff ff       	call   100874 <insert_str>
  100ad0:	83 c4 10             	add    $0x10,%esp
  100ad3:	83 ec 0c             	sub    $0xc,%esp
  100ad6:	ff 75 e4             	pushl  -0x1c(%ebp)
  100ad9:	e8 af 05 00 00       	call   10108d <strlen>
  100ade:	83 c4 10             	add    $0x10,%esp
  100ae1:	89 c2                	mov    %eax,%edx
  100ae3:	8b 45 f4             	mov    -0xc(%ebp),%eax
  100ae6:	01 d0                	add    %edx,%eax
  100ae8:	83 e8 01             	sub    $0x1,%eax
  100aeb:	89 45 f4             	mov    %eax,-0xc(%ebp)
  100aee:	83 45 f4 01          	addl   $0x1,-0xc(%ebp)
  100af2:	8b 55 f4             	mov    -0xc(%ebp),%edx
  100af5:	8b 45 f0             	mov    -0x10(%ebp),%eax
  100af8:	01 d0                	add    %edx,%eax
  100afa:	0f b6 00             	movzbl (%eax),%eax
  100afd:	84 c0                	test   %al,%al
  100aff:	0f 85 4f fe ff ff    	jne    100954 <printk+0x3e>
  100b05:	83 ec 0c             	sub    $0xc,%esp
  100b08:	ff 75 f0             	pushl  -0x10(%ebp)
  100b0b:	e8 ae fc ff ff       	call   1007be <kputs>
  100b10:	83 c4 10             	add    $0x10,%esp
  100b13:	90                   	nop
  100b14:	8b 5d fc             	mov    -0x4(%ebp),%ebx
  100b17:	c9                   	leave  
  100b18:	c3                   	ret    

00100b19 <printbasic>:
  100b19:	55                   	push   %ebp
  100b1a:	89 e5                	mov    %esp,%ebp
  100b1c:	83 ec 18             	sub    $0x18,%esp
  100b1f:	e8 dc 34 00 00       	call   104000 <__x86.get_pc_thunk.ax>
  100b24:	05 dc 44 00 00       	add    $0x44dc,%eax
  100b29:	8b 45 08             	mov    0x8(%ebp),%eax
  100b2c:	89 45 f0             	mov    %eax,-0x10(%ebp)
  100b2f:	c7 45 f4 00 00 00 00 	movl   $0x0,-0xc(%ebp)
  100b36:	8b 45 f0             	mov    -0x10(%ebp),%eax
  100b39:	89 45 ec             	mov    %eax,-0x14(%ebp)
  100b3c:	eb 3a                	jmp    100b78 <printbasic+0x5f>
  100b3e:	8b 55 f4             	mov    -0xc(%ebp),%edx
  100b41:	8b 45 ec             	mov    -0x14(%ebp),%eax
  100b44:	01 d0                	add    %edx,%eax
  100b46:	0f b6 00             	movzbl (%eax),%eax
  100b49:	3c 25                	cmp    $0x25,%al
  100b4b:	75 27                	jne    100b74 <printbasic+0x5b>
  100b4d:	8b 45 f4             	mov    -0xc(%ebp),%eax
  100b50:	8d 50 01             	lea    0x1(%eax),%edx
  100b53:	8b 45 ec             	mov    -0x14(%ebp),%eax
  100b56:	01 d0                	add    %edx,%eax
  100b58:	0f b6 00             	movzbl (%eax),%eax
  100b5b:	3c 73                	cmp    $0x73,%al
  100b5d:	75 15                	jne    100b74 <printbasic+0x5b>
  100b5f:	8b 45 f4             	mov    -0xc(%ebp),%eax
  100b62:	83 ec 04             	sub    $0x4,%esp
  100b65:	50                   	push   %eax
  100b66:	ff 75 0c             	pushl  0xc(%ebp)
  100b69:	ff 75 08             	pushl  0x8(%ebp)
  100b6c:	e8 03 fd ff ff       	call   100874 <insert_str>
  100b71:	83 c4 10             	add    $0x10,%esp
  100b74:	83 45 f4 01          	addl   $0x1,-0xc(%ebp)
  100b78:	8b 55 f4             	mov    -0xc(%ebp),%edx
  100b7b:	8b 45 ec             	mov    -0x14(%ebp),%eax
  100b7e:	01 d0                	add    %edx,%eax
  100b80:	0f b6 00             	movzbl (%eax),%eax
  100b83:	84 c0                	test   %al,%al
  100b85:	75 b7                	jne    100b3e <printbasic+0x25>
  100b87:	90                   	nop
  100b88:	c9                   	leave  
  100b89:	c3                   	ret    

00100b8a <printk_color>:
  100b8a:	55                   	push   %ebp
  100b8b:	89 e5                	mov    %esp,%ebp
  100b8d:	53                   	push   %ebx
  100b8e:	83 ec 34             	sub    $0x34,%esp
  100b91:	e8 6e 34 00 00       	call   104004 <__x86.get_pc_thunk.bx>
  100b96:	81 c3 6a 44 00 00    	add    $0x446a,%ebx
  100b9c:	8d 83 a0 10 08 00    	lea    0x810a0(%ebx),%eax
  100ba2:	89 45 f0             	mov    %eax,-0x10(%ebp)
  100ba5:	83 ec 08             	sub    $0x8,%esp
  100ba8:	ff 75 08             	pushl  0x8(%ebp)
  100bab:	ff 75 f0             	pushl  -0x10(%ebp)
  100bae:	e8 0b 05 00 00       	call   1010be <strcpy>
  100bb3:	83 c4 10             	add    $0x10,%esp
  100bb6:	8d 45 14             	lea    0x14(%ebp),%eax
  100bb9:	89 45 cc             	mov    %eax,-0x34(%ebp)
  100bbc:	c7 45 f4 00 00 00 00 	movl   $0x0,-0xc(%ebp)
  100bc3:	e9 9e 01 00 00       	jmp    100d66 <printk_color+0x1dc>
  100bc8:	8b 55 f4             	mov    -0xc(%ebp),%edx
  100bcb:	8b 45 f0             	mov    -0x10(%ebp),%eax
  100bce:	01 d0                	add    %edx,%eax
  100bd0:	89 45 ec             	mov    %eax,-0x14(%ebp)
  100bd3:	8b 45 ec             	mov    -0x14(%ebp),%eax
  100bd6:	0f b6 00             	movzbl (%eax),%eax
  100bd9:	3c 25                	cmp    $0x25,%al
  100bdb:	0f 85 81 01 00 00    	jne    100d62 <printk_color+0x1d8>
  100be1:	8b 45 ec             	mov    -0x14(%ebp),%eax
  100be4:	83 c0 01             	add    $0x1,%eax
  100be7:	0f b6 00             	movzbl (%eax),%eax
  100bea:	3c 73                	cmp    $0x73,%al
  100bec:	75 43                	jne    100c31 <printk_color+0xa7>
  100bee:	8b 45 cc             	mov    -0x34(%ebp),%eax
  100bf1:	8d 50 04             	lea    0x4(%eax),%edx
  100bf4:	89 55 cc             	mov    %edx,-0x34(%ebp)
  100bf7:	8b 00                	mov    (%eax),%eax
  100bf9:	89 45 d0             	mov    %eax,-0x30(%ebp)
  100bfc:	8b 45 f4             	mov    -0xc(%ebp),%eax
  100bff:	83 ec 04             	sub    $0x4,%esp
  100c02:	50                   	push   %eax
  100c03:	ff 75 d0             	pushl  -0x30(%ebp)
  100c06:	ff 75 f0             	pushl  -0x10(%ebp)
  100c09:	e8 66 fc ff ff       	call   100874 <insert_str>
  100c0e:	83 c4 10             	add    $0x10,%esp
  100c11:	83 ec 0c             	sub    $0xc,%esp
  100c14:	ff 75 d0             	pushl  -0x30(%ebp)
  100c17:	e8 71 04 00 00       	call   10108d <strlen>
  100c1c:	83 c4 10             	add    $0x10,%esp
  100c1f:	89 c2                	mov    %eax,%edx
  100c21:	8b 45 f4             	mov    -0xc(%ebp),%eax
  100c24:	01 d0                	add    %edx,%eax
  100c26:	83 e8 01             	sub    $0x1,%eax
  100c29:	89 45 f4             	mov    %eax,-0xc(%ebp)
  100c2c:	e9 31 01 00 00       	jmp    100d62 <printk_color+0x1d8>
  100c31:	8b 45 ec             	mov    -0x14(%ebp),%eax
  100c34:	83 c0 01             	add    $0x1,%eax
  100c37:	0f b6 00             	movzbl (%eax),%eax
  100c3a:	3c 64                	cmp    $0x64,%al
  100c3c:	75 55                	jne    100c93 <printk_color+0x109>
  100c3e:	8b 45 cc             	mov    -0x34(%ebp),%eax
  100c41:	8d 50 04             	lea    0x4(%eax),%edx
  100c44:	89 55 cc             	mov    %edx,-0x34(%ebp)
  100c47:	8b 00                	mov    (%eax),%eax
  100c49:	89 45 d8             	mov    %eax,-0x28(%ebp)
  100c4c:	8b 45 d8             	mov    -0x28(%ebp),%eax
  100c4f:	83 ec 0c             	sub    $0xc,%esp
  100c52:	50                   	push   %eax
  100c53:	e8 e5 04 00 00       	call   10113d <uintTostring>
  100c58:	83 c4 10             	add    $0x10,%esp
  100c5b:	89 45 d4             	mov    %eax,-0x2c(%ebp)
  100c5e:	8b 45 f4             	mov    -0xc(%ebp),%eax
  100c61:	83 ec 04             	sub    $0x4,%esp
  100c64:	50                   	push   %eax
  100c65:	ff 75 d4             	pushl  -0x2c(%ebp)
  100c68:	ff 75 f0             	pushl  -0x10(%ebp)
  100c6b:	e8 04 fc ff ff       	call   100874 <insert_str>
  100c70:	83 c4 10             	add    $0x10,%esp
  100c73:	83 ec 0c             	sub    $0xc,%esp
  100c76:	ff 75 d4             	pushl  -0x2c(%ebp)
  100c79:	e8 0f 04 00 00       	call   10108d <strlen>
  100c7e:	83 c4 10             	add    $0x10,%esp
  100c81:	89 c2                	mov    %eax,%edx
  100c83:	8b 45 f4             	mov    -0xc(%ebp),%eax
  100c86:	01 d0                	add    %edx,%eax
  100c88:	83 e8 01             	sub    $0x1,%eax
  100c8b:	89 45 f4             	mov    %eax,-0xc(%ebp)
  100c8e:	e9 cf 00 00 00       	jmp    100d62 <printk_color+0x1d8>
  100c93:	8b 45 ec             	mov    -0x14(%ebp),%eax
  100c96:	83 c0 01             	add    $0x1,%eax
  100c99:	0f b6 00             	movzbl (%eax),%eax
  100c9c:	3c 63                	cmp    $0x63,%al
  100c9e:	0f 84 be 00 00 00    	je     100d62 <printk_color+0x1d8>
  100ca4:	8b 45 ec             	mov    -0x14(%ebp),%eax
  100ca7:	83 c0 01             	add    $0x1,%eax
  100caa:	0f b6 00             	movzbl (%eax),%eax
  100cad:	3c 48                	cmp    $0x48,%al
  100caf:	75 53                	jne    100d04 <printk_color+0x17a>
  100cb1:	8b 45 cc             	mov    -0x34(%ebp),%eax
  100cb4:	8d 50 04             	lea    0x4(%eax),%edx
  100cb7:	89 55 cc             	mov    %edx,-0x34(%ebp)
  100cba:	8b 00                	mov    (%eax),%eax
  100cbc:	89 45 e0             	mov    %eax,-0x20(%ebp)
  100cbf:	83 ec 08             	sub    $0x8,%esp
  100cc2:	6a 01                	push   $0x1
  100cc4:	ff 75 e0             	pushl  -0x20(%ebp)
  100cc7:	e8 b0 01 00 00       	call   100e7c <num2hexstr>
  100ccc:	83 c4 10             	add    $0x10,%esp
  100ccf:	89 45 dc             	mov    %eax,-0x24(%ebp)
  100cd2:	8b 45 f4             	mov    -0xc(%ebp),%eax
  100cd5:	83 ec 04             	sub    $0x4,%esp
  100cd8:	50                   	push   %eax
  100cd9:	ff 75 dc             	pushl  -0x24(%ebp)
  100cdc:	ff 75 f0             	pushl  -0x10(%ebp)
  100cdf:	e8 90 fb ff ff       	call   100874 <insert_str>
  100ce4:	83 c4 10             	add    $0x10,%esp
  100ce7:	83 ec 0c             	sub    $0xc,%esp
  100cea:	ff 75 dc             	pushl  -0x24(%ebp)
  100ced:	e8 9b 03 00 00       	call   10108d <strlen>
  100cf2:	83 c4 10             	add    $0x10,%esp
  100cf5:	89 c2                	mov    %eax,%edx
  100cf7:	8b 45 f4             	mov    -0xc(%ebp),%eax
  100cfa:	01 d0                	add    %edx,%eax
  100cfc:	83 e8 01             	sub    $0x1,%eax
  100cff:	89 45 f4             	mov    %eax,-0xc(%ebp)
  100d02:	eb 5e                	jmp    100d62 <printk_color+0x1d8>
  100d04:	8b 45 ec             	mov    -0x14(%ebp),%eax
  100d07:	83 c0 01             	add    $0x1,%eax
  100d0a:	0f b6 00             	movzbl (%eax),%eax
  100d0d:	3c 68                	cmp    $0x68,%al
  100d0f:	75 51                	jne    100d62 <printk_color+0x1d8>
  100d11:	8b 45 cc             	mov    -0x34(%ebp),%eax
  100d14:	8d 50 04             	lea    0x4(%eax),%edx
  100d17:	89 55 cc             	mov    %edx,-0x34(%ebp)
  100d1a:	8b 00                	mov    (%eax),%eax
  100d1c:	89 45 e8             	mov    %eax,-0x18(%ebp)
  100d1f:	83 ec 08             	sub    $0x8,%esp
  100d22:	6a 00                	push   $0x0
  100d24:	ff 75 e8             	pushl  -0x18(%ebp)
  100d27:	e8 50 01 00 00       	call   100e7c <num2hexstr>
  100d2c:	83 c4 10             	add    $0x10,%esp
  100d2f:	89 45 e4             	mov    %eax,-0x1c(%ebp)
  100d32:	8b 45 f4             	mov    -0xc(%ebp),%eax
  100d35:	83 ec 04             	sub    $0x4,%esp
  100d38:	50                   	push   %eax
  100d39:	ff 75 e4             	pushl  -0x1c(%ebp)
  100d3c:	ff 75 f0             	pushl  -0x10(%ebp)
  100d3f:	e8 30 fb ff ff       	call   100874 <insert_str>
  100d44:	83 c4 10             	add    $0x10,%esp
  100d47:	83 ec 0c             	sub    $0xc,%esp
  100d4a:	ff 75 e4             	pushl  -0x1c(%ebp)
  100d4d:	e8 3b 03 00 00       	call   10108d <strlen>
  100d52:	83 c4 10             	add    $0x10,%esp
  100d55:	89 c2                	mov    %eax,%edx
  100d57:	8b 45 f4             	mov    -0xc(%ebp),%eax
  100d5a:	01 d0                	add    %edx,%eax
  100d5c:	83 e8 01             	sub    $0x1,%eax
  100d5f:	89 45 f4             	mov    %eax,-0xc(%ebp)
  100d62:	83 45 f4 01          	addl   $0x1,-0xc(%ebp)
  100d66:	8b 55 f4             	mov    -0xc(%ebp),%edx
  100d69:	8b 45 f0             	mov    -0x10(%ebp),%eax
  100d6c:	01 d0                	add    %edx,%eax
  100d6e:	0f b6 00             	movzbl (%eax),%eax
  100d71:	84 c0                	test   %al,%al
  100d73:	0f 85 4f fe ff ff    	jne    100bc8 <printk_color+0x3e>
  100d79:	83 ec 04             	sub    $0x4,%esp
  100d7c:	ff 75 10             	pushl  0x10(%ebp)
  100d7f:	ff 75 0c             	pushl  0xc(%ebp)
  100d82:	ff 75 f0             	pushl  -0x10(%ebp)
  100d85:	e8 ee f9 ff ff       	call   100778 <kputs_color>
  100d8a:	83 c4 10             	add    $0x10,%esp
  100d8d:	90                   	nop
  100d8e:	8b 5d fc             	mov    -0x4(%ebp),%ebx
  100d91:	c9                   	leave  
  100d92:	c3                   	ret    

00100d93 <printkDebug>:
  100d93:	55                   	push   %ebp
  100d94:	89 e5                	mov    %esp,%ebp
  100d96:	53                   	push   %ebx
  100d97:	83 ec 04             	sub    $0x4,%esp
  100d9a:	e8 65 32 00 00       	call   104004 <__x86.get_pc_thunk.bx>
  100d9f:	81 c3 61 42 00 00    	add    $0x4261,%ebx
  100da5:	83 ec 0c             	sub    $0xc,%esp
  100da8:	8d 83 0c 00 00 00    	lea    0xc(%ebx),%eax
  100dae:	50                   	push   %eax
  100daf:	e8 62 fb ff ff       	call   100916 <printk>
  100db4:	83 c4 10             	add    $0x10,%esp
  100db7:	83 ec 04             	sub    $0x4,%esp
  100dba:	6a 0f                	push   $0xf
  100dbc:	6a 00                	push   $0x0
  100dbe:	8d 83 17 00 00 00    	lea    0x17(%ebx),%eax
  100dc4:	50                   	push   %eax
  100dc5:	e8 c0 fd ff ff       	call   100b8a <printk_color>
  100dca:	83 c4 10             	add    $0x10,%esp
  100dcd:	90                   	nop
  100dce:	8b 5d fc             	mov    -0x4(%ebp),%ebx
  100dd1:	c9                   	leave  
  100dd2:	c3                   	ret    

00100dd3 <func>:
  100dd3:	55                   	push   %ebp
  100dd4:	89 e5                	mov    %esp,%ebp
  100dd6:	83 ec 28             	sub    $0x28,%esp
  100dd9:	e8 22 32 00 00       	call   104000 <__x86.get_pc_thunk.ax>
  100dde:	05 22 42 00 00       	add    $0x4222,%eax
  100de3:	c7 45 e3 30 31 32 33 	movl   $0x33323130,-0x1d(%ebp)
  100dea:	c7 45 e7 34 35 36 37 	movl   $0x37363534,-0x19(%ebp)
  100df1:	c7 45 eb 38 39 41 42 	movl   $0x42413938,-0x15(%ebp)
  100df8:	c7 45 ef 43 44 45 46 	movl   $0x46454443,-0x11(%ebp)
  100dff:	c6 45 f3 00          	movb   $0x0,-0xd(%ebp)
  100e03:	83 7d 0c 00          	cmpl   $0x0,0xc(%ebp)
  100e07:	75 1c                	jne    100e25 <func+0x52>
  100e09:	83 ec 08             	sub    $0x8,%esp
  100e0c:	8d 80 1f 00 00 00    	lea    0x1f(%eax),%eax
  100e12:	50                   	push   %eax
  100e13:	ff 75 08             	pushl  0x8(%ebp)
  100e16:	e8 a3 02 00 00       	call   1010be <strcpy>
  100e1b:	83 c4 10             	add    $0x10,%esp
  100e1e:	b8 00 00 00 00       	mov    $0x0,%eax
  100e23:	eb 55                	jmp    100e7a <func+0xa7>
  100e25:	8b 45 0c             	mov    0xc(%ebp),%eax
  100e28:	99                   	cltd   
  100e29:	f7 7d 10             	idivl  0x10(%ebp)
  100e2c:	83 ec 04             	sub    $0x4,%esp
  100e2f:	ff 75 10             	pushl  0x10(%ebp)
  100e32:	50                   	push   %eax
  100e33:	ff 75 08             	pushl  0x8(%ebp)
  100e36:	e8 98 ff ff ff       	call   100dd3 <func>
  100e3b:	83 c4 10             	add    $0x10,%esp
  100e3e:	83 ec 0c             	sub    $0xc,%esp
  100e41:	ff 75 08             	pushl  0x8(%ebp)
  100e44:	e8 44 02 00 00       	call   10108d <strlen>
  100e49:	83 c4 10             	add    $0x10,%esp
  100e4c:	89 45 f4             	mov    %eax,-0xc(%ebp)
  100e4f:	8b 45 0c             	mov    0xc(%ebp),%eax
  100e52:	99                   	cltd   
  100e53:	f7 7d 10             	idivl  0x10(%ebp)
  100e56:	89 d1                	mov    %edx,%ecx
  100e58:	8b 55 f4             	mov    -0xc(%ebp),%edx
  100e5b:	8b 45 08             	mov    0x8(%ebp),%eax
  100e5e:	01 c2                	add    %eax,%edx
  100e60:	0f b6 44 0d e3       	movzbl -0x1d(%ebp,%ecx,1),%eax
  100e65:	88 02                	mov    %al,(%edx)
  100e67:	8b 45 f4             	mov    -0xc(%ebp),%eax
  100e6a:	8d 50 01             	lea    0x1(%eax),%edx
  100e6d:	8b 45 08             	mov    0x8(%ebp),%eax
  100e70:	01 d0                	add    %edx,%eax
  100e72:	c6 00 00             	movb   $0x0,(%eax)
  100e75:	b8 01 00 00 00       	mov    $0x1,%eax
  100e7a:	c9                   	leave  
  100e7b:	c3                   	ret    

00100e7c <num2hexstr>:
  100e7c:	55                   	push   %ebp
  100e7d:	89 e5                	mov    %esp,%ebp
  100e7f:	53                   	push   %ebx
  100e80:	83 ec 34             	sub    $0x34,%esp
  100e83:	e8 7c 31 00 00       	call   104004 <__x86.get_pc_thunk.bx>
  100e88:	81 c3 78 41 00 00    	add    $0x4178,%ebx
  100e8e:	83 7d 08 00          	cmpl   $0x0,0x8(%ebp)
  100e92:	0f 84 f1 00 00 00    	je     100f89 <num2hexstr+0x10d>
  100e98:	c6 83 20 11 08 00 30 	movb   $0x30,0x81120(%ebx)
  100e9f:	c6 83 21 11 08 00 78 	movb   $0x78,0x81121(%ebx)
  100ea6:	c7 45 df 00 00 00 00 	movl   $0x0,-0x21(%ebp)
  100ead:	c7 45 e3 00 00 00 00 	movl   $0x0,-0x1d(%ebp)
  100eb4:	c6 45 e7 00          	movb   $0x0,-0x19(%ebp)
  100eb8:	8d 45 df             	lea    -0x21(%ebp),%eax
  100ebb:	89 45 f0             	mov    %eax,-0x10(%ebp)
  100ebe:	83 ec 04             	sub    $0x4,%esp
  100ec1:	6a 10                	push   $0x10
  100ec3:	ff 75 08             	pushl  0x8(%ebp)
  100ec6:	ff 75 f0             	pushl  -0x10(%ebp)
  100ec9:	e8 05 ff ff ff       	call   100dd3 <func>
  100ece:	83 c4 10             	add    $0x10,%esp
  100ed1:	c7 45 d6 00 00 00 00 	movl   $0x0,-0x2a(%ebp)
  100ed8:	c7 45 da 00 00 00 00 	movl   $0x0,-0x26(%ebp)
  100edf:	c6 45 de 00          	movb   $0x0,-0x22(%ebp)
  100ee3:	8d 45 d6             	lea    -0x2a(%ebp),%eax
  100ee6:	89 45 ec             	mov    %eax,-0x14(%ebp)
  100ee9:	83 ec 08             	sub    $0x8,%esp
  100eec:	ff 75 f0             	pushl  -0x10(%ebp)
  100eef:	ff 75 ec             	pushl  -0x14(%ebp)
  100ef2:	e8 c7 01 00 00       	call   1010be <strcpy>
  100ef7:	83 c4 10             	add    $0x10,%esp
  100efa:	83 ec 0c             	sub    $0xc,%esp
  100efd:	8d 45 df             	lea    -0x21(%ebp),%eax
  100f00:	50                   	push   %eax
  100f01:	e8 87 01 00 00       	call   10108d <strlen>
  100f06:	83 c4 10             	add    $0x10,%esp
  100f09:	ba 08 00 00 00       	mov    $0x8,%edx
  100f0e:	29 c2                	sub    %eax,%edx
  100f10:	89 d0                	mov    %edx,%eax
  100f12:	89 45 e8             	mov    %eax,-0x18(%ebp)
  100f15:	8b 45 e8             	mov    -0x18(%ebp),%eax
  100f18:	8d 55 df             	lea    -0x21(%ebp),%edx
  100f1b:	01 c2                	add    %eax,%edx
  100f1d:	83 ec 08             	sub    $0x8,%esp
  100f20:	8d 45 d6             	lea    -0x2a(%ebp),%eax
  100f23:	50                   	push   %eax
  100f24:	52                   	push   %edx
  100f25:	e8 94 01 00 00       	call   1010be <strcpy>
  100f2a:	83 c4 10             	add    $0x10,%esp
  100f2d:	c7 45 f4 00 00 00 00 	movl   $0x0,-0xc(%ebp)
  100f34:	eb 0f                	jmp    100f45 <num2hexstr+0xc9>
  100f36:	8b 45 f4             	mov    -0xc(%ebp),%eax
  100f39:	8d 55 df             	lea    -0x21(%ebp),%edx
  100f3c:	01 d0                	add    %edx,%eax
  100f3e:	c6 00 30             	movb   $0x30,(%eax)
  100f41:	83 45 f4 01          	addl   $0x1,-0xc(%ebp)
  100f45:	8b 45 f4             	mov    -0xc(%ebp),%eax
  100f48:	3b 45 e8             	cmp    -0x18(%ebp),%eax
  100f4b:	7c e9                	jl     100f36 <num2hexstr+0xba>
  100f4d:	83 7d 0c 00          	cmpl   $0x0,0xc(%ebp)
  100f51:	74 18                	je     100f6b <num2hexstr+0xef>
  100f53:	8d 83 22 11 08 00    	lea    0x81122(%ebx),%eax
  100f59:	83 ec 08             	sub    $0x8,%esp
  100f5c:	8d 55 df             	lea    -0x21(%ebp),%edx
  100f5f:	52                   	push   %edx
  100f60:	50                   	push   %eax
  100f61:	e8 58 01 00 00       	call   1010be <strcpy>
  100f66:	83 c4 10             	add    $0x10,%esp
  100f69:	eb 16                	jmp    100f81 <num2hexstr+0x105>
  100f6b:	83 ec 08             	sub    $0x8,%esp
  100f6e:	8d 45 df             	lea    -0x21(%ebp),%eax
  100f71:	50                   	push   %eax
  100f72:	8d 83 20 11 08 00    	lea    0x81120(%ebx),%eax
  100f78:	50                   	push   %eax
  100f79:	e8 40 01 00 00       	call   1010be <strcpy>
  100f7e:	83 c4 10             	add    $0x10,%esp
  100f81:	8d 83 20 11 08 00    	lea    0x81120(%ebx),%eax
  100f87:	eb 14                	jmp    100f9d <num2hexstr+0x121>
  100f89:	83 7d 0c 00          	cmpl   $0x0,0xc(%ebp)
  100f8d:	74 08                	je     100f97 <num2hexstr+0x11b>
  100f8f:	8d 83 20 00 00 00    	lea    0x20(%ebx),%eax
  100f95:	eb 06                	jmp    100f9d <num2hexstr+0x121>
  100f97:	8d 83 2b 00 00 00    	lea    0x2b(%ebx),%eax
  100f9d:	8b 5d fc             	mov    -0x4(%ebp),%ebx
  100fa0:	c9                   	leave  
  100fa1:	c3                   	ret    

00100fa2 <memcpy>:
  100fa2:	55                   	push   %ebp
  100fa3:	89 e5                	mov    %esp,%ebp
  100fa5:	e8 56 30 00 00       	call   104000 <__x86.get_pc_thunk.ax>
  100faa:	05 56 40 00 00       	add    $0x4056,%eax
  100faf:	eb 17                	jmp    100fc8 <memcpy+0x26>
  100fb1:	8b 45 0c             	mov    0xc(%ebp),%eax
  100fb4:	0f b6 10             	movzbl (%eax),%edx
  100fb7:	8b 45 08             	mov    0x8(%ebp),%eax
  100fba:	88 10                	mov    %dl,(%eax)
  100fbc:	83 45 08 01          	addl   $0x1,0x8(%ebp)
  100fc0:	83 45 0c 01          	addl   $0x1,0xc(%ebp)
  100fc4:	83 6d 10 01          	subl   $0x1,0x10(%ebp)
  100fc8:	83 7d 10 00          	cmpl   $0x0,0x10(%ebp)
  100fcc:	75 e3                	jne    100fb1 <memcpy+0xf>
  100fce:	90                   	nop
  100fcf:	5d                   	pop    %ebp
  100fd0:	c3                   	ret    

00100fd1 <memset>:
  100fd1:	55                   	push   %ebp
  100fd2:	89 e5                	mov    %esp,%ebp
  100fd4:	83 ec 14             	sub    $0x14,%esp
  100fd7:	e8 24 30 00 00       	call   104000 <__x86.get_pc_thunk.ax>
  100fdc:	05 24 40 00 00       	add    $0x4024,%eax
  100fe1:	8b 45 0c             	mov    0xc(%ebp),%eax
  100fe4:	88 45 ec             	mov    %al,-0x14(%ebp)
  100fe7:	8b 45 08             	mov    0x8(%ebp),%eax
  100fea:	89 45 fc             	mov    %eax,-0x4(%ebp)
  100fed:	eb 13                	jmp    101002 <memset+0x31>
  100fef:	8b 45 fc             	mov    -0x4(%ebp),%eax
  100ff2:	8d 50 01             	lea    0x1(%eax),%edx
  100ff5:	89 55 fc             	mov    %edx,-0x4(%ebp)
  100ff8:	0f b6 55 ec          	movzbl -0x14(%ebp),%edx
  100ffc:	88 10                	mov    %dl,(%eax)
  100ffe:	83 6d 10 01          	subl   $0x1,0x10(%ebp)
  101002:	83 7d 10 00          	cmpl   $0x0,0x10(%ebp)
  101006:	75 e7                	jne    100fef <memset+0x1e>
  101008:	90                   	nop
  101009:	c9                   	leave  
  10100a:	c3                   	ret    

0010100b <bzero>:
  10100b:	55                   	push   %ebp
  10100c:	89 e5                	mov    %esp,%ebp
  10100e:	e8 ed 2f 00 00       	call   104000 <__x86.get_pc_thunk.ax>
  101013:	05 ed 3f 00 00       	add    $0x3fed,%eax
  101018:	ff 75 0c             	pushl  0xc(%ebp)
  10101b:	6a 00                	push   $0x0
  10101d:	ff 75 08             	pushl  0x8(%ebp)
  101020:	e8 ac ff ff ff       	call   100fd1 <memset>
  101025:	83 c4 0c             	add    $0xc,%esp
  101028:	90                   	nop
  101029:	c9                   	leave  
  10102a:	c3                   	ret    

0010102b <strcmp>:
  10102b:	55                   	push   %ebp
  10102c:	89 e5                	mov    %esp,%ebp
  10102e:	e8 cd 2f 00 00       	call   104000 <__x86.get_pc_thunk.ax>
  101033:	05 cd 3f 00 00       	add    $0x3fcd,%eax
  101038:	8b 45 08             	mov    0x8(%ebp),%eax
  10103b:	0f b6 00             	movzbl (%eax),%eax
  10103e:	84 c0                	test   %al,%al
  101040:	75 11                	jne    101053 <strcmp+0x28>
  101042:	8b 45 0c             	mov    0xc(%ebp),%eax
  101045:	0f b6 00             	movzbl (%eax),%eax
  101048:	84 c0                	test   %al,%al
  10104a:	75 07                	jne    101053 <strcmp+0x28>
  10104c:	b8 00 00 00 00       	mov    $0x0,%eax
  101051:	eb 38                	jmp    10108b <strcmp+0x60>
  101053:	8b 45 08             	mov    0x8(%ebp),%eax
  101056:	0f b6 10             	movzbl (%eax),%edx
  101059:	8b 45 0c             	mov    0xc(%ebp),%eax
  10105c:	0f b6 00             	movzbl (%eax),%eax
  10105f:	38 c2                	cmp    %al,%dl
  101061:	7e 07                	jle    10106a <strcmp+0x3f>
  101063:	b8 01 00 00 00       	mov    $0x1,%eax
  101068:	eb 21                	jmp    10108b <strcmp+0x60>
  10106a:	8b 45 08             	mov    0x8(%ebp),%eax
  10106d:	0f b6 10             	movzbl (%eax),%edx
  101070:	8b 45 0c             	mov    0xc(%ebp),%eax
  101073:	0f b6 00             	movzbl (%eax),%eax
  101076:	38 c2                	cmp    %al,%dl
  101078:	7e 07                	jle    101081 <strcmp+0x56>
  10107a:	b8 ff ff ff ff       	mov    $0xffffffff,%eax
  10107f:	eb 0a                	jmp    10108b <strcmp+0x60>
  101081:	83 45 08 01          	addl   $0x1,0x8(%ebp)
  101085:	83 45 0c 01          	addl   $0x1,0xc(%ebp)
  101089:	eb ad                	jmp    101038 <strcmp+0xd>
  10108b:	5d                   	pop    %ebp
  10108c:	c3                   	ret    

0010108d <strlen>:
  10108d:	55                   	push   %ebp
  10108e:	89 e5                	mov    %esp,%ebp
  101090:	83 ec 10             	sub    $0x10,%esp
  101093:	e8 68 2f 00 00       	call   104000 <__x86.get_pc_thunk.ax>
  101098:	05 68 3f 00 00       	add    $0x3f68,%eax
  10109d:	c7 45 fc 00 00 00 00 	movl   $0x0,-0x4(%ebp)
  1010a4:	eb 04                	jmp    1010aa <strlen+0x1d>
  1010a6:	83 45 fc 01          	addl   $0x1,-0x4(%ebp)
  1010aa:	8b 55 fc             	mov    -0x4(%ebp),%edx
  1010ad:	8b 45 08             	mov    0x8(%ebp),%eax
  1010b0:	01 d0                	add    %edx,%eax
  1010b2:	0f b6 00             	movzbl (%eax),%eax
  1010b5:	84 c0                	test   %al,%al
  1010b7:	75 ed                	jne    1010a6 <strlen+0x19>
  1010b9:	8b 45 fc             	mov    -0x4(%ebp),%eax
  1010bc:	c9                   	leave  
  1010bd:	c3                   	ret    

001010be <strcpy>:
  1010be:	55                   	push   %ebp
  1010bf:	89 e5                	mov    %esp,%ebp
  1010c1:	83 ec 10             	sub    $0x10,%esp
  1010c4:	e8 37 2f 00 00       	call   104000 <__x86.get_pc_thunk.ax>
  1010c9:	05 37 3f 00 00       	add    $0x3f37,%eax
  1010ce:	8b 45 08             	mov    0x8(%ebp),%eax
  1010d1:	89 45 fc             	mov    %eax,-0x4(%ebp)
  1010d4:	eb 13                	jmp    1010e9 <strcpy+0x2b>
  1010d6:	8b 45 0c             	mov    0xc(%ebp),%eax
  1010d9:	0f b6 10             	movzbl (%eax),%edx
  1010dc:	8b 45 08             	mov    0x8(%ebp),%eax
  1010df:	88 10                	mov    %dl,(%eax)
  1010e1:	83 45 08 01          	addl   $0x1,0x8(%ebp)
  1010e5:	83 45 0c 01          	addl   $0x1,0xc(%ebp)
  1010e9:	8b 45 0c             	mov    0xc(%ebp),%eax
  1010ec:	0f b6 00             	movzbl (%eax),%eax
  1010ef:	84 c0                	test   %al,%al
  1010f1:	75 e3                	jne    1010d6 <strcpy+0x18>
  1010f3:	8b 45 08             	mov    0x8(%ebp),%eax
  1010f6:	c6 00 00             	movb   $0x0,(%eax)
  1010f9:	8b 45 fc             	mov    -0x4(%ebp),%eax
  1010fc:	89 45 08             	mov    %eax,0x8(%ebp)
  1010ff:	8b 45 08             	mov    0x8(%ebp),%eax
  101102:	c9                   	leave  
  101103:	c3                   	ret    

00101104 <strcat>:
  101104:	55                   	push   %ebp
  101105:	89 e5                	mov    %esp,%ebp
  101107:	83 ec 10             	sub    $0x10,%esp
  10110a:	e8 f1 2e 00 00       	call   104000 <__x86.get_pc_thunk.ax>
  10110f:	05 f1 3e 00 00       	add    $0x3ef1,%eax
  101114:	8b 45 08             	mov    0x8(%ebp),%eax
  101117:	89 45 fc             	mov    %eax,-0x4(%ebp)
  10111a:	eb 04                	jmp    101120 <strcat+0x1c>
  10111c:	83 45 fc 01          	addl   $0x1,-0x4(%ebp)
  101120:	8b 45 fc             	mov    -0x4(%ebp),%eax
  101123:	0f b6 00             	movzbl (%eax),%eax
  101126:	84 c0                	test   %al,%al
  101128:	75 f2                	jne    10111c <strcat+0x18>
  10112a:	ff 75 0c             	pushl  0xc(%ebp)
  10112d:	ff 75 fc             	pushl  -0x4(%ebp)
  101130:	e8 89 ff ff ff       	call   1010be <strcpy>
  101135:	83 c4 08             	add    $0x8,%esp
  101138:	8b 45 08             	mov    0x8(%ebp),%eax
  10113b:	c9                   	leave  
  10113c:	c3                   	ret    

0010113d <uintTostring>:
  10113d:	55                   	push   %ebp
  10113e:	89 e5                	mov    %esp,%ebp
  101140:	83 ec 28             	sub    $0x28,%esp
  101143:	e8 b8 2e 00 00       	call   104000 <__x86.get_pc_thunk.ax>
  101148:	05 b8 3e 00 00       	add    $0x3eb8,%eax
  10114d:	c6 45 da 30          	movb   $0x30,-0x26(%ebp)
  101151:	c6 45 db 31          	movb   $0x31,-0x25(%ebp)
  101155:	c6 45 dc 32          	movb   $0x32,-0x24(%ebp)
  101159:	c6 45 dd 33          	movb   $0x33,-0x23(%ebp)
  10115d:	c6 45 de 34          	movb   $0x34,-0x22(%ebp)
  101161:	c6 45 df 35          	movb   $0x35,-0x21(%ebp)
  101165:	c6 45 e0 36          	movb   $0x36,-0x20(%ebp)
  101169:	c6 45 e1 37          	movb   $0x37,-0x1f(%ebp)
  10116d:	c6 45 e2 38          	movb   $0x38,-0x1e(%ebp)
  101171:	c6 45 e3 39          	movb   $0x39,-0x1d(%ebp)
  101175:	8d 80 40 11 08 00    	lea    0x81140(%eax),%eax
  10117b:	89 45 f4             	mov    %eax,-0xc(%ebp)
  10117e:	8b 45 f4             	mov    -0xc(%ebp),%eax
  101181:	89 45 ec             	mov    %eax,-0x14(%ebp)
  101184:	c7 45 f0 00 00 00 00 	movl   $0x0,-0x10(%ebp)
  10118b:	eb 46                	jmp    1011d3 <uintTostring+0x96>
  10118d:	8b 45 08             	mov    0x8(%ebp),%eax
  101190:	ba cd cc cc cc       	mov    $0xcccccccd,%edx
  101195:	f7 e2                	mul    %edx
  101197:	89 d0                	mov    %edx,%eax
  101199:	c1 e8 03             	shr    $0x3,%eax
  10119c:	89 45 e8             	mov    %eax,-0x18(%ebp)
  10119f:	8b 55 e8             	mov    -0x18(%ebp),%edx
  1011a2:	89 d0                	mov    %edx,%eax
  1011a4:	c1 e0 02             	shl    $0x2,%eax
  1011a7:	01 d0                	add    %edx,%eax
  1011a9:	01 c0                	add    %eax,%eax
  1011ab:	89 c2                	mov    %eax,%edx
  1011ad:	8b 45 08             	mov    0x8(%ebp),%eax
  1011b0:	29 d0                	sub    %edx,%eax
  1011b2:	89 45 e4             	mov    %eax,-0x1c(%ebp)
  1011b5:	8b 45 e8             	mov    -0x18(%ebp),%eax
  1011b8:	89 45 08             	mov    %eax,0x8(%ebp)
  1011bb:	8d 55 da             	lea    -0x26(%ebp),%edx
  1011be:	8b 45 e4             	mov    -0x1c(%ebp),%eax
  1011c1:	01 d0                	add    %edx,%eax
  1011c3:	0f b6 10             	movzbl (%eax),%edx
  1011c6:	8b 45 f4             	mov    -0xc(%ebp),%eax
  1011c9:	88 10                	mov    %dl,(%eax)
  1011cb:	83 45 f4 01          	addl   $0x1,-0xc(%ebp)
  1011cf:	83 45 f0 01          	addl   $0x1,-0x10(%ebp)
  1011d3:	83 7d 08 09          	cmpl   $0x9,0x8(%ebp)
  1011d7:	77 b4                	ja     10118d <uintTostring+0x50>
  1011d9:	8d 55 da             	lea    -0x26(%ebp),%edx
  1011dc:	8b 45 08             	mov    0x8(%ebp),%eax
  1011df:	01 d0                	add    %edx,%eax
  1011e1:	0f b6 10             	movzbl (%eax),%edx
  1011e4:	8b 45 f4             	mov    -0xc(%ebp),%eax
  1011e7:	88 10                	mov    %dl,(%eax)
  1011e9:	8b 45 f4             	mov    -0xc(%ebp),%eax
  1011ec:	83 c0 01             	add    $0x1,%eax
  1011ef:	c6 00 00             	movb   $0x0,(%eax)
  1011f2:	83 ec 0c             	sub    $0xc,%esp
  1011f5:	ff 75 ec             	pushl  -0x14(%ebp)
  1011f8:	e8 05 00 00 00       	call   101202 <strrevers>
  1011fd:	83 c4 10             	add    $0x10,%esp
  101200:	c9                   	leave  
  101201:	c3                   	ret    

00101202 <strrevers>:
  101202:	55                   	push   %ebp
  101203:	89 e5                	mov    %esp,%ebp
  101205:	83 ec 20             	sub    $0x20,%esp
  101208:	e8 f3 2d 00 00       	call   104000 <__x86.get_pc_thunk.ax>
  10120d:	05 f3 3d 00 00       	add    $0x3df3,%eax
  101212:	8b 45 08             	mov    0x8(%ebp),%eax
  101215:	89 45 f4             	mov    %eax,-0xc(%ebp)
  101218:	ff 75 08             	pushl  0x8(%ebp)
  10121b:	e8 6d fe ff ff       	call   10108d <strlen>
  101220:	83 c4 04             	add    $0x4,%esp
  101223:	89 45 f0             	mov    %eax,-0x10(%ebp)
  101226:	c7 45 fc 00 00 00 00 	movl   $0x0,-0x4(%ebp)
  10122d:	83 6d f0 01          	subl   $0x1,-0x10(%ebp)
  101231:	8b 45 f0             	mov    -0x10(%ebp),%eax
  101234:	89 45 f8             	mov    %eax,-0x8(%ebp)
  101237:	eb 39                	jmp    101272 <strrevers+0x70>
  101239:	8b 55 f8             	mov    -0x8(%ebp),%edx
  10123c:	8b 45 f4             	mov    -0xc(%ebp),%eax
  10123f:	01 d0                	add    %edx,%eax
  101241:	0f b6 00             	movzbl (%eax),%eax
  101244:	88 45 ef             	mov    %al,-0x11(%ebp)
  101247:	8b 55 fc             	mov    -0x4(%ebp),%edx
  10124a:	8b 45 f4             	mov    -0xc(%ebp),%eax
  10124d:	01 d0                	add    %edx,%eax
  10124f:	8b 4d f8             	mov    -0x8(%ebp),%ecx
  101252:	8b 55 f4             	mov    -0xc(%ebp),%edx
  101255:	01 ca                	add    %ecx,%edx
  101257:	0f b6 00             	movzbl (%eax),%eax
  10125a:	88 02                	mov    %al,(%edx)
  10125c:	8b 55 fc             	mov    -0x4(%ebp),%edx
  10125f:	8b 45 f4             	mov    -0xc(%ebp),%eax
  101262:	01 c2                	add    %eax,%edx
  101264:	0f b6 45 ef          	movzbl -0x11(%ebp),%eax
  101268:	88 02                	mov    %al,(%edx)
  10126a:	83 45 fc 01          	addl   $0x1,-0x4(%ebp)
  10126e:	83 6d f8 01          	subl   $0x1,-0x8(%ebp)
  101272:	8b 45 fc             	mov    -0x4(%ebp),%eax
  101275:	3b 45 f8             	cmp    -0x8(%ebp),%eax
  101278:	7c bf                	jl     101239 <strrevers+0x37>
  10127a:	8b 45 f4             	mov    -0xc(%ebp),%eax
  10127d:	c9                   	leave  
  10127e:	c3                   	ret    

0010127f <_8259A_init>:
  10127f:	55                   	push   %ebp
  101280:	89 e5                	mov    %esp,%ebp
  101282:	53                   	push   %ebx
  101283:	83 ec 04             	sub    $0x4,%esp
  101286:	e8 79 2d 00 00       	call   104004 <__x86.get_pc_thunk.bx>
  10128b:	81 c3 75 3d 00 00    	add    $0x3d75,%ebx
  101291:	0f b7 83 14 f0 ff ff 	movzwl -0xfec(%ebx),%eax
  101298:	0f b7 c0             	movzwl %ax,%eax
  10129b:	83 ec 08             	sub    $0x8,%esp
  10129e:	6a 11                	push   $0x11
  1012a0:	50                   	push   %eax
  1012a1:	e8 55 f5 ff ff       	call   1007fb <outb>
  1012a6:	83 c4 10             	add    $0x10,%esp
  1012a9:	0f b7 83 16 f0 ff ff 	movzwl -0xfea(%ebx),%eax
  1012b0:	0f b7 c0             	movzwl %ax,%eax
  1012b3:	83 ec 08             	sub    $0x8,%esp
  1012b6:	6a 20                	push   $0x20
  1012b8:	50                   	push   %eax
  1012b9:	e8 3d f5 ff ff       	call   1007fb <outb>
  1012be:	83 c4 10             	add    $0x10,%esp
  1012c1:	0f b7 83 16 f0 ff ff 	movzwl -0xfea(%ebx),%eax
  1012c8:	0f b7 c0             	movzwl %ax,%eax
  1012cb:	83 ec 08             	sub    $0x8,%esp
  1012ce:	6a 04                	push   $0x4
  1012d0:	50                   	push   %eax
  1012d1:	e8 25 f5 ff ff       	call   1007fb <outb>
  1012d6:	83 c4 10             	add    $0x10,%esp
  1012d9:	0f b7 83 16 f0 ff ff 	movzwl -0xfea(%ebx),%eax
  1012e0:	0f b7 c0             	movzwl %ax,%eax
  1012e3:	83 ec 08             	sub    $0x8,%esp
  1012e6:	6a 01                	push   $0x1
  1012e8:	50                   	push   %eax
  1012e9:	e8 0d f5 ff ff       	call   1007fb <outb>
  1012ee:	83 c4 10             	add    $0x10,%esp
  1012f1:	0f b7 83 18 f0 ff ff 	movzwl -0xfe8(%ebx),%eax
  1012f8:	0f b7 c0             	movzwl %ax,%eax
  1012fb:	83 ec 08             	sub    $0x8,%esp
  1012fe:	6a 11                	push   $0x11
  101300:	50                   	push   %eax
  101301:	e8 f5 f4 ff ff       	call   1007fb <outb>
  101306:	83 c4 10             	add    $0x10,%esp
  101309:	0f b7 83 1a f0 ff ff 	movzwl -0xfe6(%ebx),%eax
  101310:	0f b7 c0             	movzwl %ax,%eax
  101313:	83 ec 08             	sub    $0x8,%esp
  101316:	6a 28                	push   $0x28
  101318:	50                   	push   %eax
  101319:	e8 dd f4 ff ff       	call   1007fb <outb>
  10131e:	83 c4 10             	add    $0x10,%esp
  101321:	0f b7 83 1a f0 ff ff 	movzwl -0xfe6(%ebx),%eax
  101328:	0f b7 c0             	movzwl %ax,%eax
  10132b:	83 ec 08             	sub    $0x8,%esp
  10132e:	6a 02                	push   $0x2
  101330:	50                   	push   %eax
  101331:	e8 c5 f4 ff ff       	call   1007fb <outb>
  101336:	83 c4 10             	add    $0x10,%esp
  101339:	0f b7 83 1a f0 ff ff 	movzwl -0xfe6(%ebx),%eax
  101340:	0f b7 c0             	movzwl %ax,%eax
  101343:	83 ec 08             	sub    $0x8,%esp
  101346:	6a 01                	push   $0x1
  101348:	50                   	push   %eax
  101349:	e8 ad f4 ff ff       	call   1007fb <outb>
  10134e:	83 c4 10             	add    $0x10,%esp
  101351:	90                   	nop
  101352:	8b 5d fc             	mov    -0x4(%ebp),%ebx
  101355:	c9                   	leave  
  101356:	c3                   	ret    

00101357 <kern_entry>:
  101357:	55                   	push   %ebp
  101358:	89 e5                	mov    %esp,%ebp
  10135a:	53                   	push   %ebx
  10135b:	83 ec 14             	sub    $0x14,%esp
  10135e:	e8 a1 2c 00 00       	call   104004 <__x86.get_pc_thunk.bx>
  101363:	81 c3 9d 3c 00 00    	add    $0x3c9d,%ebx
  101369:	e8 75 f4 ff ff       	call   1007e3 <vga_init>
  10136e:	e8 50 13 00 00       	call   1026c3 <pmm_init>
  101373:	e8 0a 16 00 00       	call   102982 <idt_init>
  101378:	e8 a5 1b 00 00       	call   102f22 <threads_init>
  10137d:	8d 45 ec             	lea    -0x14(%ebp),%eax
  101380:	83 ec 0c             	sub    $0xc,%esp
  101383:	50                   	push   %eax
  101384:	e8 fd 0d 00 00       	call   102186 <pmm_alloc_one_page>
  101389:	83 c4 0c             	add    $0xc,%esp
  10138c:	8b 45 ec             	mov    -0x14(%ebp),%eax
  10138f:	83 ec 0c             	sub    $0xc,%esp
  101392:	6a 01                	push   $0x1
  101394:	50                   	push   %eax
  101395:	6a 00                	push   $0x0
  101397:	8d 83 bf c3 ff ff    	lea    -0x3c41(%ebx),%eax
  10139d:	50                   	push   %eax
  10139e:	6a 01                	push   $0x1
  1013a0:	e8 5a 1c 00 00       	call   102fff <create_thread>
  1013a5:	83 c4 20             	add    $0x20,%esp
  1013a8:	fb                   	sti    
  1013a9:	fa                   	cli    
  1013aa:	83 ec 0c             	sub    $0xc,%esp
  1013ad:	8d 83 34 00 00 00    	lea    0x34(%ebx),%eax
  1013b3:	50                   	push   %eax
  1013b4:	e8 5d f5 ff ff       	call   100916 <printk>
  1013b9:	83 c4 10             	add    $0x10,%esp
  1013bc:	fb                   	sti    
  1013bd:	eb ea                	jmp    1013a9 <kern_entry+0x52>

001013bf <func>:
  1013bf:	55                   	push   %ebp
  1013c0:	89 e5                	mov    %esp,%ebp
  1013c2:	53                   	push   %ebx
  1013c3:	83 ec 04             	sub    $0x4,%esp
  1013c6:	e8 39 2c 00 00       	call   104004 <__x86.get_pc_thunk.bx>
  1013cb:	81 c3 35 3c 00 00    	add    $0x3c35,%ebx
  1013d1:	fa                   	cli    
  1013d2:	83 ec 04             	sub    $0x4,%esp
  1013d5:	6a 00                	push   $0x0
  1013d7:	6a 0f                	push   $0xf
  1013d9:	8d 83 36 00 00 00    	lea    0x36(%ebx),%eax
  1013df:	50                   	push   %eax
  1013e0:	e8 a5 f7 ff ff       	call   100b8a <printk_color>
  1013e5:	83 c4 10             	add    $0x10,%esp
  1013e8:	fb                   	sti    
  1013e9:	eb e6                	jmp    1013d1 <func+0x12>

001013eb <pmm_page_no_to_addr>:
  1013eb:	55                   	push   %ebp
  1013ec:	89 e5                	mov    %esp,%ebp
  1013ee:	e8 0d 2c 00 00       	call   104000 <__x86.get_pc_thunk.ax>
  1013f3:	05 0d 3c 00 00       	add    $0x3c0d,%eax
  1013f8:	8b 55 08             	mov    0x8(%ebp),%edx
  1013fb:	c1 e2 0c             	shl    $0xc,%edx
  1013fe:	8b 80 d0 11 08 00    	mov    0x811d0(%eax),%eax
  101404:	01 d0                	add    %edx,%eax
  101406:	5d                   	pop    %ebp
  101407:	c3                   	ret    

00101408 <addr_to_pmm_page_no>:
  101408:	55                   	push   %ebp
  101409:	89 e5                	mov    %esp,%ebp
  10140b:	e8 f0 2b 00 00       	call   104000 <__x86.get_pc_thunk.ax>
  101410:	05 f0 3b 00 00       	add    $0x3bf0,%eax
  101415:	8b 80 d0 11 08 00    	mov    0x811d0(%eax),%eax
  10141b:	8b 55 08             	mov    0x8(%ebp),%edx
  10141e:	29 c2                	sub    %eax,%edx
  101420:	89 d0                	mov    %edx,%eax
  101422:	c1 e8 0c             	shr    $0xc,%eax
  101425:	5d                   	pop    %ebp
  101426:	c3                   	ret    

00101427 <c_to_uint32>:
  101427:	55                   	push   %ebp
  101428:	89 e5                	mov    %esp,%ebp
  10142a:	83 ec 10             	sub    $0x10,%esp
  10142d:	e8 ce 2b 00 00       	call   104000 <__x86.get_pc_thunk.ax>
  101432:	05 ce 3b 00 00       	add    $0x3bce,%eax
  101437:	c7 45 fc 01 00 00 00 	movl   $0x1,-0x4(%ebp)
  10143e:	8b 45 08             	mov    0x8(%ebp),%eax
  101441:	89 c1                	mov    %eax,%ecx
  101443:	d3 65 fc             	shll   %cl,-0x4(%ebp)
  101446:	8b 45 fc             	mov    -0x4(%ebp),%eax
  101449:	c9                   	leave  
  10144a:	c3                   	ret    

0010144b <get_partner_page_no>:
  10144b:	55                   	push   %ebp
  10144c:	89 e5                	mov    %esp,%ebp
  10144e:	83 ec 10             	sub    $0x10,%esp
  101451:	e8 aa 2b 00 00       	call   104000 <__x86.get_pc_thunk.ax>
  101456:	05 aa 3b 00 00       	add    $0x3baa,%eax
  10145b:	ff 75 0c             	pushl  0xc(%ebp)
  10145e:	e8 c4 ff ff ff       	call   101427 <c_to_uint32>
  101463:	83 c4 04             	add    $0x4,%esp
  101466:	89 45 fc             	mov    %eax,-0x4(%ebp)
  101469:	8b 45 fc             	mov    -0x4(%ebp),%eax
  10146c:	01 c0                	add    %eax,%eax
  10146e:	89 45 f8             	mov    %eax,-0x8(%ebp)
  101471:	8b 45 08             	mov    0x8(%ebp),%eax
  101474:	2b 45 fc             	sub    -0x4(%ebp),%eax
  101477:	ba 00 00 00 00       	mov    $0x0,%edx
  10147c:	f7 75 f8             	divl   -0x8(%ebp)
  10147f:	89 d0                	mov    %edx,%eax
  101481:	85 c0                	test   %eax,%eax
  101483:	75 08                	jne    10148d <get_partner_page_no+0x42>
  101485:	8b 45 08             	mov    0x8(%ebp),%eax
  101488:	2b 45 fc             	sub    -0x4(%ebp),%eax
  10148b:	eb 08                	jmp    101495 <get_partner_page_no+0x4a>
  10148d:	8b 55 08             	mov    0x8(%ebp),%edx
  101490:	8b 45 fc             	mov    -0x4(%ebp),%eax
  101493:	01 d0                	add    %edx,%eax
  101495:	c9                   	leave  
  101496:	c3                   	ret    

00101497 <append_block>:
  101497:	55                   	push   %ebp
  101498:	89 e5                	mov    %esp,%ebp
  10149a:	53                   	push   %ebx
  10149b:	83 ec 10             	sub    $0x10,%esp
  10149e:	e8 5d 2b 00 00       	call   104000 <__x86.get_pc_thunk.ax>
  1014a3:	05 5d 3b 00 00       	add    $0x3b5d,%eax
  1014a8:	8b 98 1c f0 ff ff    	mov    -0xfe4(%eax),%ebx
  1014ae:	8b 4d 08             	mov    0x8(%ebp),%ecx
  1014b1:	89 ca                	mov    %ecx,%edx
  1014b3:	01 d2                	add    %edx,%edx
  1014b5:	01 ca                	add    %ecx,%edx
  1014b7:	c1 e2 02             	shl    $0x2,%edx
  1014ba:	01 da                	add    %ebx,%edx
  1014bc:	c7 42 04 00 00 00 00 	movl   $0x0,0x4(%edx)
  1014c3:	83 7d 0c 0b          	cmpl   $0xb,0xc(%ebp)
  1014c7:	0f 87 cd 02 00 00    	ja     10179a <.L39+0x22>
  1014cd:	8b 55 0c             	mov    0xc(%ebp),%edx
  1014d0:	c1 e2 02             	shl    $0x2,%edx
  1014d3:	8b 94 02 38 00 00 00 	mov    0x38(%edx,%eax,1),%edx
  1014da:	01 c2                	add    %eax,%edx
  1014dc:	ff e2                	jmp    *%edx

001014de <.L12>:
  1014de:	c7 c2 00 70 18 00    	mov    $0x187000,%edx
  1014e4:	8b 12                	mov    (%edx),%edx
  1014e6:	8b 12                	mov    (%edx),%edx
  1014e8:	89 55 f8             	mov    %edx,-0x8(%ebp)
  1014eb:	83 7d f8 00          	cmpl   $0x0,-0x8(%ebp)
  1014ef:	0f 85 86 02 00 00    	jne    10177b <.L39+0x3>
  1014f5:	8b 98 1c f0 ff ff    	mov    -0xfe4(%eax),%ebx
  1014fb:	8b 4d 08             	mov    0x8(%ebp),%ecx
  1014fe:	89 ca                	mov    %ecx,%edx
  101500:	01 d2                	add    %edx,%edx
  101502:	01 ca                	add    %ecx,%edx
  101504:	c1 e2 02             	shl    $0x2,%edx
  101507:	89 d1                	mov    %edx,%ecx
  101509:	c7 c2 00 70 18 00    	mov    $0x187000,%edx
  10150f:	8b 12                	mov    (%edx),%edx
  101511:	01 d9                	add    %ebx,%ecx
  101513:	89 0a                	mov    %ecx,(%edx)
  101515:	e9 61 02 00 00       	jmp    10177b <.L39+0x3>

0010151a <.L14>:
  10151a:	c7 c2 00 70 18 00    	mov    $0x187000,%edx
  101520:	8b 12                	mov    (%edx),%edx
  101522:	8b 52 04             	mov    0x4(%edx),%edx
  101525:	89 55 f8             	mov    %edx,-0x8(%ebp)
  101528:	83 7d f8 00          	cmpl   $0x0,-0x8(%ebp)
  10152c:	0f 85 4c 02 00 00    	jne    10177e <.L39+0x6>
  101532:	8b 98 1c f0 ff ff    	mov    -0xfe4(%eax),%ebx
  101538:	8b 4d 08             	mov    0x8(%ebp),%ecx
  10153b:	89 ca                	mov    %ecx,%edx
  10153d:	01 d2                	add    %edx,%edx
  10153f:	01 ca                	add    %ecx,%edx
  101541:	c1 e2 02             	shl    $0x2,%edx
  101544:	89 d1                	mov    %edx,%ecx
  101546:	c7 c2 00 70 18 00    	mov    $0x187000,%edx
  10154c:	8b 12                	mov    (%edx),%edx
  10154e:	01 d9                	add    %ebx,%ecx
  101550:	89 4a 04             	mov    %ecx,0x4(%edx)
  101553:	e9 26 02 00 00       	jmp    10177e <.L39+0x6>

00101558 <.L15>:
  101558:	c7 c2 00 70 18 00    	mov    $0x187000,%edx
  10155e:	8b 12                	mov    (%edx),%edx
  101560:	8b 52 08             	mov    0x8(%edx),%edx
  101563:	89 55 f8             	mov    %edx,-0x8(%ebp)
  101566:	83 7d f8 00          	cmpl   $0x0,-0x8(%ebp)
  10156a:	0f 85 11 02 00 00    	jne    101781 <.L39+0x9>
  101570:	8b 98 1c f0 ff ff    	mov    -0xfe4(%eax),%ebx
  101576:	8b 4d 08             	mov    0x8(%ebp),%ecx
  101579:	89 ca                	mov    %ecx,%edx
  10157b:	01 d2                	add    %edx,%edx
  10157d:	01 ca                	add    %ecx,%edx
  10157f:	c1 e2 02             	shl    $0x2,%edx
  101582:	89 d1                	mov    %edx,%ecx
  101584:	c7 c2 00 70 18 00    	mov    $0x187000,%edx
  10158a:	8b 12                	mov    (%edx),%edx
  10158c:	01 d9                	add    %ebx,%ecx
  10158e:	89 4a 08             	mov    %ecx,0x8(%edx)
  101591:	e9 eb 01 00 00       	jmp    101781 <.L39+0x9>

00101596 <.L16>:
  101596:	c7 c2 00 70 18 00    	mov    $0x187000,%edx
  10159c:	8b 12                	mov    (%edx),%edx
  10159e:	8b 52 0c             	mov    0xc(%edx),%edx
  1015a1:	89 55 f8             	mov    %edx,-0x8(%ebp)
  1015a4:	83 7d f8 00          	cmpl   $0x0,-0x8(%ebp)
  1015a8:	0f 85 d6 01 00 00    	jne    101784 <.L39+0xc>
  1015ae:	8b 98 1c f0 ff ff    	mov    -0xfe4(%eax),%ebx
  1015b4:	8b 4d 08             	mov    0x8(%ebp),%ecx
  1015b7:	89 ca                	mov    %ecx,%edx
  1015b9:	01 d2                	add    %edx,%edx
  1015bb:	01 ca                	add    %ecx,%edx
  1015bd:	c1 e2 02             	shl    $0x2,%edx
  1015c0:	89 d1                	mov    %edx,%ecx
  1015c2:	c7 c2 00 70 18 00    	mov    $0x187000,%edx
  1015c8:	8b 12                	mov    (%edx),%edx
  1015ca:	01 d9                	add    %ebx,%ecx
  1015cc:	89 4a 0c             	mov    %ecx,0xc(%edx)
  1015cf:	e9 b0 01 00 00       	jmp    101784 <.L39+0xc>

001015d4 <.L17>:
  1015d4:	c7 c2 00 70 18 00    	mov    $0x187000,%edx
  1015da:	8b 12                	mov    (%edx),%edx
  1015dc:	8b 52 10             	mov    0x10(%edx),%edx
  1015df:	89 55 f8             	mov    %edx,-0x8(%ebp)
  1015e2:	83 7d f8 00          	cmpl   $0x0,-0x8(%ebp)
  1015e6:	0f 85 9b 01 00 00    	jne    101787 <.L39+0xf>
  1015ec:	8b 98 1c f0 ff ff    	mov    -0xfe4(%eax),%ebx
  1015f2:	8b 4d 08             	mov    0x8(%ebp),%ecx
  1015f5:	89 ca                	mov    %ecx,%edx
  1015f7:	01 d2                	add    %edx,%edx
  1015f9:	01 ca                	add    %ecx,%edx
  1015fb:	c1 e2 02             	shl    $0x2,%edx
  1015fe:	89 d1                	mov    %edx,%ecx
  101600:	c7 c2 00 70 18 00    	mov    $0x187000,%edx
  101606:	8b 12                	mov    (%edx),%edx
  101608:	01 d9                	add    %ebx,%ecx
  10160a:	89 4a 10             	mov    %ecx,0x10(%edx)
  10160d:	e9 75 01 00 00       	jmp    101787 <.L39+0xf>

00101612 <.L18>:
  101612:	c7 c2 00 70 18 00    	mov    $0x187000,%edx
  101618:	8b 12                	mov    (%edx),%edx
  10161a:	8b 52 14             	mov    0x14(%edx),%edx
  10161d:	89 55 f8             	mov    %edx,-0x8(%ebp)
  101620:	83 7d f8 00          	cmpl   $0x0,-0x8(%ebp)
  101624:	0f 85 60 01 00 00    	jne    10178a <.L39+0x12>
  10162a:	8b 98 1c f0 ff ff    	mov    -0xfe4(%eax),%ebx
  101630:	8b 4d 08             	mov    0x8(%ebp),%ecx
  101633:	89 ca                	mov    %ecx,%edx
  101635:	01 d2                	add    %edx,%edx
  101637:	01 ca                	add    %ecx,%edx
  101639:	c1 e2 02             	shl    $0x2,%edx
  10163c:	89 d1                	mov    %edx,%ecx
  10163e:	c7 c2 00 70 18 00    	mov    $0x187000,%edx
  101644:	8b 12                	mov    (%edx),%edx
  101646:	01 d9                	add    %ebx,%ecx
  101648:	89 4a 14             	mov    %ecx,0x14(%edx)
  10164b:	e9 3a 01 00 00       	jmp    10178a <.L39+0x12>

00101650 <.L19>:
  101650:	c7 c2 00 70 18 00    	mov    $0x187000,%edx
  101656:	8b 12                	mov    (%edx),%edx
  101658:	8b 52 18             	mov    0x18(%edx),%edx
  10165b:	89 55 f8             	mov    %edx,-0x8(%ebp)
  10165e:	83 7d f8 00          	cmpl   $0x0,-0x8(%ebp)
  101662:	0f 85 25 01 00 00    	jne    10178d <.L39+0x15>
  101668:	8b 98 1c f0 ff ff    	mov    -0xfe4(%eax),%ebx
  10166e:	8b 4d 08             	mov    0x8(%ebp),%ecx
  101671:	89 ca                	mov    %ecx,%edx
  101673:	01 d2                	add    %edx,%edx
  101675:	01 ca                	add    %ecx,%edx
  101677:	c1 e2 02             	shl    $0x2,%edx
  10167a:	89 d1                	mov    %edx,%ecx
  10167c:	c7 c2 00 70 18 00    	mov    $0x187000,%edx
  101682:	8b 12                	mov    (%edx),%edx
  101684:	01 d9                	add    %ebx,%ecx
  101686:	89 4a 18             	mov    %ecx,0x18(%edx)
  101689:	e9 ff 00 00 00       	jmp    10178d <.L39+0x15>

0010168e <.L20>:
  10168e:	c7 c2 00 70 18 00    	mov    $0x187000,%edx
  101694:	8b 12                	mov    (%edx),%edx
  101696:	8b 52 1c             	mov    0x1c(%edx),%edx
  101699:	89 55 f8             	mov    %edx,-0x8(%ebp)
  10169c:	83 7d f8 00          	cmpl   $0x0,-0x8(%ebp)
  1016a0:	0f 85 ea 00 00 00    	jne    101790 <.L39+0x18>
  1016a6:	8b 98 1c f0 ff ff    	mov    -0xfe4(%eax),%ebx
  1016ac:	8b 4d 08             	mov    0x8(%ebp),%ecx
  1016af:	89 ca                	mov    %ecx,%edx
  1016b1:	01 d2                	add    %edx,%edx
  1016b3:	01 ca                	add    %ecx,%edx
  1016b5:	c1 e2 02             	shl    $0x2,%edx
  1016b8:	89 d1                	mov    %edx,%ecx
  1016ba:	c7 c2 00 70 18 00    	mov    $0x187000,%edx
  1016c0:	8b 12                	mov    (%edx),%edx
  1016c2:	01 d9                	add    %ebx,%ecx
  1016c4:	89 4a 1c             	mov    %ecx,0x1c(%edx)
  1016c7:	e9 c4 00 00 00       	jmp    101790 <.L39+0x18>

001016cc <.L21>:
  1016cc:	c7 c2 00 70 18 00    	mov    $0x187000,%edx
  1016d2:	8b 12                	mov    (%edx),%edx
  1016d4:	8b 52 20             	mov    0x20(%edx),%edx
  1016d7:	89 55 f8             	mov    %edx,-0x8(%ebp)
  1016da:	83 7d f8 00          	cmpl   $0x0,-0x8(%ebp)
  1016de:	0f 85 af 00 00 00    	jne    101793 <.L39+0x1b>
  1016e4:	8b 98 1c f0 ff ff    	mov    -0xfe4(%eax),%ebx
  1016ea:	8b 4d 08             	mov    0x8(%ebp),%ecx
  1016ed:	89 ca                	mov    %ecx,%edx
  1016ef:	01 d2                	add    %edx,%edx
  1016f1:	01 ca                	add    %ecx,%edx
  1016f3:	c1 e2 02             	shl    $0x2,%edx
  1016f6:	89 d1                	mov    %edx,%ecx
  1016f8:	c7 c2 00 70 18 00    	mov    $0x187000,%edx
  1016fe:	8b 12                	mov    (%edx),%edx
  101700:	01 d9                	add    %ebx,%ecx
  101702:	89 4a 20             	mov    %ecx,0x20(%edx)
  101705:	e9 89 00 00 00       	jmp    101793 <.L39+0x1b>

0010170a <.L22>:
  10170a:	c7 c2 00 70 18 00    	mov    $0x187000,%edx
  101710:	8b 12                	mov    (%edx),%edx
  101712:	8b 52 24             	mov    0x24(%edx),%edx
  101715:	89 55 f8             	mov    %edx,-0x8(%ebp)
  101718:	83 7d f8 00          	cmpl   $0x0,-0x8(%ebp)
  10171c:	75 78                	jne    101796 <.L39+0x1e>
  10171e:	8b 98 1c f0 ff ff    	mov    -0xfe4(%eax),%ebx
  101724:	8b 4d 08             	mov    0x8(%ebp),%ecx
  101727:	89 ca                	mov    %ecx,%edx
  101729:	01 d2                	add    %edx,%edx
  10172b:	01 ca                	add    %ecx,%edx
  10172d:	c1 e2 02             	shl    $0x2,%edx
  101730:	89 d1                	mov    %edx,%ecx
  101732:	c7 c2 00 70 18 00    	mov    $0x187000,%edx
  101738:	8b 12                	mov    (%edx),%edx
  10173a:	01 d9                	add    %ebx,%ecx
  10173c:	89 4a 24             	mov    %ecx,0x24(%edx)
  10173f:	eb 55                	jmp    101796 <.L39+0x1e>

00101741 <.L23>:
  101741:	c7 c2 00 70 18 00    	mov    $0x187000,%edx
  101747:	8b 12                	mov    (%edx),%edx
  101749:	8b 52 28             	mov    0x28(%edx),%edx
  10174c:	89 55 f8             	mov    %edx,-0x8(%ebp)
  10174f:	83 7d f8 00          	cmpl   $0x0,-0x8(%ebp)
  101753:	75 44                	jne    101799 <.L39+0x21>
  101755:	8b 98 1c f0 ff ff    	mov    -0xfe4(%eax),%ebx
  10175b:	8b 4d 08             	mov    0x8(%ebp),%ecx
  10175e:	89 ca                	mov    %ecx,%edx
  101760:	01 d2                	add    %edx,%edx
  101762:	01 ca                	add    %ecx,%edx
  101764:	c1 e2 02             	shl    $0x2,%edx
  101767:	89 d1                	mov    %edx,%ecx
  101769:	c7 c2 00 70 18 00    	mov    $0x187000,%edx
  10176f:	8b 12                	mov    (%edx),%edx
  101771:	01 d9                	add    %ebx,%ecx
  101773:	89 4a 28             	mov    %ecx,0x28(%edx)
  101776:	eb 21                	jmp    101799 <.L39+0x21>

00101778 <.L39>:
  101778:	90                   	nop
  101779:	eb 1f                	jmp    10179a <.L39+0x22>
  10177b:	90                   	nop
  10177c:	eb 1c                	jmp    10179a <.L39+0x22>
  10177e:	90                   	nop
  10177f:	eb 19                	jmp    10179a <.L39+0x22>
  101781:	90                   	nop
  101782:	eb 16                	jmp    10179a <.L39+0x22>
  101784:	90                   	nop
  101785:	eb 13                	jmp    10179a <.L39+0x22>
  101787:	90                   	nop
  101788:	eb 10                	jmp    10179a <.L39+0x22>
  10178a:	90                   	nop
  10178b:	eb 0d                	jmp    10179a <.L39+0x22>
  10178d:	90                   	nop
  10178e:	eb 0a                	jmp    10179a <.L39+0x22>
  101790:	90                   	nop
  101791:	eb 07                	jmp    10179a <.L39+0x22>
  101793:	90                   	nop
  101794:	eb 04                	jmp    10179a <.L39+0x22>
  101796:	90                   	nop
  101797:	eb 01                	jmp    10179a <.L39+0x22>
  101799:	90                   	nop
  10179a:	83 7d f8 00          	cmpl   $0x0,-0x8(%ebp)
  10179e:	74 36                	je     1017d6 <.L39+0x5e>
  1017a0:	8b 55 f8             	mov    -0x8(%ebp),%edx
  1017a3:	89 55 f4             	mov    %edx,-0xc(%ebp)
  1017a6:	eb 09                	jmp    1017b1 <.L39+0x39>
  1017a8:	8b 55 f4             	mov    -0xc(%ebp),%edx
  1017ab:	8b 52 04             	mov    0x4(%edx),%edx
  1017ae:	89 55 f4             	mov    %edx,-0xc(%ebp)
  1017b1:	8b 55 f4             	mov    -0xc(%ebp),%edx
  1017b4:	8b 52 04             	mov    0x4(%edx),%edx
  1017b7:	85 d2                	test   %edx,%edx
  1017b9:	75 ed                	jne    1017a8 <.L39+0x30>
  1017bb:	8b 88 1c f0 ff ff    	mov    -0xfe4(%eax),%ecx
  1017c1:	8b 55 08             	mov    0x8(%ebp),%edx
  1017c4:	89 d0                	mov    %edx,%eax
  1017c6:	01 c0                	add    %eax,%eax
  1017c8:	01 d0                	add    %edx,%eax
  1017ca:	c1 e0 02             	shl    $0x2,%eax
  1017cd:	8d 14 01             	lea    (%ecx,%eax,1),%edx
  1017d0:	8b 45 f4             	mov    -0xc(%ebp),%eax
  1017d3:	89 50 04             	mov    %edx,0x4(%eax)
  1017d6:	90                   	nop
  1017d7:	83 c4 10             	add    $0x10,%esp
  1017da:	5b                   	pop    %ebx
  1017db:	5d                   	pop    %ebp
  1017dc:	c3                   	ret    

001017dd <pop_block>:
  1017dd:	55                   	push   %ebp
  1017de:	89 e5                	mov    %esp,%ebp
  1017e0:	83 ec 10             	sub    $0x10,%esp
  1017e3:	e8 18 28 00 00       	call   104000 <__x86.get_pc_thunk.ax>
  1017e8:	05 18 38 00 00       	add    $0x3818,%eax
  1017ed:	83 7d 08 0b          	cmpl   $0xb,0x8(%ebp)
  1017f1:	0f 87 1e 03 00 00    	ja     101b15 <.L66+0x26>
  1017f7:	8b 55 08             	mov    0x8(%ebp),%edx
  1017fa:	c1 e2 02             	shl    $0x2,%edx
  1017fd:	8b 94 02 68 00 00 00 	mov    0x68(%edx,%eax,1),%edx
  101804:	01 c2                	add    %eax,%edx
  101806:	ff e2                	jmp    *%edx

00101808 <.L54>:
  101808:	c7 c2 00 70 18 00    	mov    $0x187000,%edx
  10180e:	8b 12                	mov    (%edx),%edx
  101810:	8b 12                	mov    (%edx),%edx
  101812:	89 55 fc             	mov    %edx,-0x4(%ebp)
  101815:	83 7d fc 00          	cmpl   $0x0,-0x4(%ebp)
  101819:	75 0a                	jne    101825 <.L54+0x1d>
  10181b:	b8 ff ff ff ff       	mov    $0xffffffff,%eax
  101820:	e9 26 03 00 00       	jmp    101b4b <.L66+0x5c>
  101825:	8b 55 fc             	mov    -0x4(%ebp),%edx
  101828:	8b 52 04             	mov    0x4(%edx),%edx
  10182b:	85 d2                	test   %edx,%edx
  10182d:	0f 85 c3 02 00 00    	jne    101af6 <.L66+0x7>
  101833:	c7 c0 00 70 18 00    	mov    $0x187000,%eax
  101839:	8b 00                	mov    (%eax),%eax
  10183b:	c7 00 00 00 00 00    	movl   $0x0,(%eax)
  101841:	8b 45 fc             	mov    -0x4(%ebp),%eax
  101844:	8b 00                	mov    (%eax),%eax
  101846:	e9 00 03 00 00       	jmp    101b4b <.L66+0x5c>

0010184b <.L56>:
  10184b:	c7 c2 00 70 18 00    	mov    $0x187000,%edx
  101851:	8b 12                	mov    (%edx),%edx
  101853:	8b 52 04             	mov    0x4(%edx),%edx
  101856:	89 55 fc             	mov    %edx,-0x4(%ebp)
  101859:	83 7d fc 00          	cmpl   $0x0,-0x4(%ebp)
  10185d:	75 0a                	jne    101869 <.L56+0x1e>
  10185f:	b8 ff ff ff ff       	mov    $0xffffffff,%eax
  101864:	e9 e2 02 00 00       	jmp    101b4b <.L66+0x5c>
  101869:	8b 55 fc             	mov    -0x4(%ebp),%edx
  10186c:	8b 52 04             	mov    0x4(%edx),%edx
  10186f:	85 d2                	test   %edx,%edx
  101871:	0f 85 82 02 00 00    	jne    101af9 <.L66+0xa>
  101877:	c7 c0 00 70 18 00    	mov    $0x187000,%eax
  10187d:	8b 00                	mov    (%eax),%eax
  10187f:	c7 40 04 00 00 00 00 	movl   $0x0,0x4(%eax)
  101886:	8b 45 fc             	mov    -0x4(%ebp),%eax
  101889:	8b 00                	mov    (%eax),%eax
  10188b:	e9 bb 02 00 00       	jmp    101b4b <.L66+0x5c>

00101890 <.L57>:
  101890:	c7 c2 00 70 18 00    	mov    $0x187000,%edx
  101896:	8b 12                	mov    (%edx),%edx
  101898:	8b 52 08             	mov    0x8(%edx),%edx
  10189b:	89 55 fc             	mov    %edx,-0x4(%ebp)
  10189e:	83 7d fc 00          	cmpl   $0x0,-0x4(%ebp)
  1018a2:	75 0a                	jne    1018ae <.L57+0x1e>
  1018a4:	b8 ff ff ff ff       	mov    $0xffffffff,%eax
  1018a9:	e9 9d 02 00 00       	jmp    101b4b <.L66+0x5c>
  1018ae:	8b 55 fc             	mov    -0x4(%ebp),%edx
  1018b1:	8b 52 04             	mov    0x4(%edx),%edx
  1018b4:	85 d2                	test   %edx,%edx
  1018b6:	0f 85 40 02 00 00    	jne    101afc <.L66+0xd>
  1018bc:	c7 c0 00 70 18 00    	mov    $0x187000,%eax
  1018c2:	8b 00                	mov    (%eax),%eax
  1018c4:	c7 40 08 00 00 00 00 	movl   $0x0,0x8(%eax)
  1018cb:	8b 45 fc             	mov    -0x4(%ebp),%eax
  1018ce:	8b 00                	mov    (%eax),%eax
  1018d0:	e9 76 02 00 00       	jmp    101b4b <.L66+0x5c>

001018d5 <.L58>:
  1018d5:	c7 c2 00 70 18 00    	mov    $0x187000,%edx
  1018db:	8b 12                	mov    (%edx),%edx
  1018dd:	8b 52 0c             	mov    0xc(%edx),%edx
  1018e0:	89 55 fc             	mov    %edx,-0x4(%ebp)
  1018e3:	83 7d fc 00          	cmpl   $0x0,-0x4(%ebp)
  1018e7:	75 0a                	jne    1018f3 <.L58+0x1e>
  1018e9:	b8 ff ff ff ff       	mov    $0xffffffff,%eax
  1018ee:	e9 58 02 00 00       	jmp    101b4b <.L66+0x5c>
  1018f3:	8b 55 fc             	mov    -0x4(%ebp),%edx
  1018f6:	8b 52 04             	mov    0x4(%edx),%edx
  1018f9:	85 d2                	test   %edx,%edx
  1018fb:	0f 85 fe 01 00 00    	jne    101aff <.L66+0x10>
  101901:	c7 c0 00 70 18 00    	mov    $0x187000,%eax
  101907:	8b 00                	mov    (%eax),%eax
  101909:	c7 40 0c 00 00 00 00 	movl   $0x0,0xc(%eax)
  101910:	8b 45 fc             	mov    -0x4(%ebp),%eax
  101913:	8b 00                	mov    (%eax),%eax
  101915:	e9 31 02 00 00       	jmp    101b4b <.L66+0x5c>

0010191a <.L59>:
  10191a:	c7 c2 00 70 18 00    	mov    $0x187000,%edx
  101920:	8b 12                	mov    (%edx),%edx
  101922:	8b 52 10             	mov    0x10(%edx),%edx
  101925:	89 55 fc             	mov    %edx,-0x4(%ebp)
  101928:	83 7d fc 00          	cmpl   $0x0,-0x4(%ebp)
  10192c:	75 0a                	jne    101938 <.L59+0x1e>
  10192e:	b8 ff ff ff ff       	mov    $0xffffffff,%eax
  101933:	e9 13 02 00 00       	jmp    101b4b <.L66+0x5c>
  101938:	8b 55 fc             	mov    -0x4(%ebp),%edx
  10193b:	8b 52 04             	mov    0x4(%edx),%edx
  10193e:	85 d2                	test   %edx,%edx
  101940:	0f 85 bc 01 00 00    	jne    101b02 <.L66+0x13>
  101946:	c7 c0 00 70 18 00    	mov    $0x187000,%eax
  10194c:	8b 00                	mov    (%eax),%eax
  10194e:	c7 40 10 00 00 00 00 	movl   $0x0,0x10(%eax)
  101955:	8b 45 fc             	mov    -0x4(%ebp),%eax
  101958:	8b 00                	mov    (%eax),%eax
  10195a:	e9 ec 01 00 00       	jmp    101b4b <.L66+0x5c>

0010195f <.L60>:
  10195f:	c7 c2 00 70 18 00    	mov    $0x187000,%edx
  101965:	8b 12                	mov    (%edx),%edx
  101967:	8b 52 14             	mov    0x14(%edx),%edx
  10196a:	89 55 fc             	mov    %edx,-0x4(%ebp)
  10196d:	83 7d fc 00          	cmpl   $0x0,-0x4(%ebp)
  101971:	75 0a                	jne    10197d <.L60+0x1e>
  101973:	b8 ff ff ff ff       	mov    $0xffffffff,%eax
  101978:	e9 ce 01 00 00       	jmp    101b4b <.L66+0x5c>
  10197d:	8b 55 fc             	mov    -0x4(%ebp),%edx
  101980:	8b 52 04             	mov    0x4(%edx),%edx
  101983:	85 d2                	test   %edx,%edx
  101985:	0f 85 7a 01 00 00    	jne    101b05 <.L66+0x16>
  10198b:	c7 c0 00 70 18 00    	mov    $0x187000,%eax
  101991:	8b 00                	mov    (%eax),%eax
  101993:	c7 40 14 00 00 00 00 	movl   $0x0,0x14(%eax)
  10199a:	8b 45 fc             	mov    -0x4(%ebp),%eax
  10199d:	8b 00                	mov    (%eax),%eax
  10199f:	e9 a7 01 00 00       	jmp    101b4b <.L66+0x5c>

001019a4 <.L61>:
  1019a4:	c7 c2 00 70 18 00    	mov    $0x187000,%edx
  1019aa:	8b 12                	mov    (%edx),%edx
  1019ac:	8b 52 18             	mov    0x18(%edx),%edx
  1019af:	89 55 fc             	mov    %edx,-0x4(%ebp)
  1019b2:	83 7d fc 00          	cmpl   $0x0,-0x4(%ebp)
  1019b6:	75 0a                	jne    1019c2 <.L61+0x1e>
  1019b8:	b8 ff ff ff ff       	mov    $0xffffffff,%eax
  1019bd:	e9 89 01 00 00       	jmp    101b4b <.L66+0x5c>
  1019c2:	8b 55 fc             	mov    -0x4(%ebp),%edx
  1019c5:	8b 52 04             	mov    0x4(%edx),%edx
  1019c8:	85 d2                	test   %edx,%edx
  1019ca:	0f 85 38 01 00 00    	jne    101b08 <.L66+0x19>
  1019d0:	c7 c0 00 70 18 00    	mov    $0x187000,%eax
  1019d6:	8b 00                	mov    (%eax),%eax
  1019d8:	c7 40 18 00 00 00 00 	movl   $0x0,0x18(%eax)
  1019df:	8b 45 fc             	mov    -0x4(%ebp),%eax
  1019e2:	8b 00                	mov    (%eax),%eax
  1019e4:	e9 62 01 00 00       	jmp    101b4b <.L66+0x5c>

001019e9 <.L62>:
  1019e9:	c7 c2 00 70 18 00    	mov    $0x187000,%edx
  1019ef:	8b 12                	mov    (%edx),%edx
  1019f1:	8b 52 1c             	mov    0x1c(%edx),%edx
  1019f4:	89 55 fc             	mov    %edx,-0x4(%ebp)
  1019f7:	83 7d fc 00          	cmpl   $0x0,-0x4(%ebp)
  1019fb:	75 0a                	jne    101a07 <.L62+0x1e>
  1019fd:	b8 ff ff ff ff       	mov    $0xffffffff,%eax
  101a02:	e9 44 01 00 00       	jmp    101b4b <.L66+0x5c>
  101a07:	8b 55 fc             	mov    -0x4(%ebp),%edx
  101a0a:	8b 52 04             	mov    0x4(%edx),%edx
  101a0d:	85 d2                	test   %edx,%edx
  101a0f:	0f 85 f6 00 00 00    	jne    101b0b <.L66+0x1c>
  101a15:	c7 c0 00 70 18 00    	mov    $0x187000,%eax
  101a1b:	8b 00                	mov    (%eax),%eax
  101a1d:	c7 40 1c 00 00 00 00 	movl   $0x0,0x1c(%eax)
  101a24:	8b 45 fc             	mov    -0x4(%ebp),%eax
  101a27:	8b 00                	mov    (%eax),%eax
  101a29:	e9 1d 01 00 00       	jmp    101b4b <.L66+0x5c>

00101a2e <.L63>:
  101a2e:	c7 c2 00 70 18 00    	mov    $0x187000,%edx
  101a34:	8b 12                	mov    (%edx),%edx
  101a36:	8b 52 20             	mov    0x20(%edx),%edx
  101a39:	89 55 fc             	mov    %edx,-0x4(%ebp)
  101a3c:	83 7d fc 00          	cmpl   $0x0,-0x4(%ebp)
  101a40:	75 0a                	jne    101a4c <.L63+0x1e>
  101a42:	b8 ff ff ff ff       	mov    $0xffffffff,%eax
  101a47:	e9 ff 00 00 00       	jmp    101b4b <.L66+0x5c>
  101a4c:	8b 55 fc             	mov    -0x4(%ebp),%edx
  101a4f:	8b 52 04             	mov    0x4(%edx),%edx
  101a52:	85 d2                	test   %edx,%edx
  101a54:	0f 85 b4 00 00 00    	jne    101b0e <.L66+0x1f>
  101a5a:	c7 c0 00 70 18 00    	mov    $0x187000,%eax
  101a60:	8b 00                	mov    (%eax),%eax
  101a62:	c7 40 20 00 00 00 00 	movl   $0x0,0x20(%eax)
  101a69:	8b 45 fc             	mov    -0x4(%ebp),%eax
  101a6c:	8b 00                	mov    (%eax),%eax
  101a6e:	e9 d8 00 00 00       	jmp    101b4b <.L66+0x5c>

00101a73 <.L64>:
  101a73:	c7 c2 00 70 18 00    	mov    $0x187000,%edx
  101a79:	8b 12                	mov    (%edx),%edx
  101a7b:	8b 52 24             	mov    0x24(%edx),%edx
  101a7e:	89 55 fc             	mov    %edx,-0x4(%ebp)
  101a81:	83 7d fc 00          	cmpl   $0x0,-0x4(%ebp)
  101a85:	75 0a                	jne    101a91 <.L64+0x1e>
  101a87:	b8 ff ff ff ff       	mov    $0xffffffff,%eax
  101a8c:	e9 ba 00 00 00       	jmp    101b4b <.L66+0x5c>
  101a91:	8b 55 fc             	mov    -0x4(%ebp),%edx
  101a94:	8b 52 04             	mov    0x4(%edx),%edx
  101a97:	85 d2                	test   %edx,%edx
  101a99:	75 76                	jne    101b11 <.L66+0x22>
  101a9b:	c7 c0 00 70 18 00    	mov    $0x187000,%eax
  101aa1:	8b 00                	mov    (%eax),%eax
  101aa3:	c7 40 24 00 00 00 00 	movl   $0x0,0x24(%eax)
  101aaa:	8b 45 fc             	mov    -0x4(%ebp),%eax
  101aad:	8b 00                	mov    (%eax),%eax
  101aaf:	e9 97 00 00 00       	jmp    101b4b <.L66+0x5c>

00101ab4 <.L65>:
  101ab4:	c7 c2 00 70 18 00    	mov    $0x187000,%edx
  101aba:	8b 12                	mov    (%edx),%edx
  101abc:	8b 52 28             	mov    0x28(%edx),%edx
  101abf:	89 55 fc             	mov    %edx,-0x4(%ebp)
  101ac2:	83 7d fc 00          	cmpl   $0x0,-0x4(%ebp)
  101ac6:	75 07                	jne    101acf <.L65+0x1b>
  101ac8:	b8 ff ff ff ff       	mov    $0xffffffff,%eax
  101acd:	eb 7c                	jmp    101b4b <.L66+0x5c>
  101acf:	8b 55 fc             	mov    -0x4(%ebp),%edx
  101ad2:	8b 52 04             	mov    0x4(%edx),%edx
  101ad5:	85 d2                	test   %edx,%edx
  101ad7:	75 3b                	jne    101b14 <.L66+0x25>
  101ad9:	c7 c0 00 70 18 00    	mov    $0x187000,%eax
  101adf:	8b 00                	mov    (%eax),%eax
  101ae1:	c7 40 28 00 00 00 00 	movl   $0x0,0x28(%eax)
  101ae8:	8b 45 fc             	mov    -0x4(%ebp),%eax
  101aeb:	8b 00                	mov    (%eax),%eax
  101aed:	eb 5c                	jmp    101b4b <.L66+0x5c>

00101aef <.L66>:
  101aef:	b8 ff ff ff ff       	mov    $0xffffffff,%eax
  101af4:	eb 55                	jmp    101b4b <.L66+0x5c>
  101af6:	90                   	nop
  101af7:	eb 1c                	jmp    101b15 <.L66+0x26>
  101af9:	90                   	nop
  101afa:	eb 19                	jmp    101b15 <.L66+0x26>
  101afc:	90                   	nop
  101afd:	eb 16                	jmp    101b15 <.L66+0x26>
  101aff:	90                   	nop
  101b00:	eb 13                	jmp    101b15 <.L66+0x26>
  101b02:	90                   	nop
  101b03:	eb 10                	jmp    101b15 <.L66+0x26>
  101b05:	90                   	nop
  101b06:	eb 0d                	jmp    101b15 <.L66+0x26>
  101b08:	90                   	nop
  101b09:	eb 0a                	jmp    101b15 <.L66+0x26>
  101b0b:	90                   	nop
  101b0c:	eb 07                	jmp    101b15 <.L66+0x26>
  101b0e:	90                   	nop
  101b0f:	eb 04                	jmp    101b15 <.L66+0x26>
  101b11:	90                   	nop
  101b12:	eb 01                	jmp    101b15 <.L66+0x26>
  101b14:	90                   	nop
  101b15:	8b 45 fc             	mov    -0x4(%ebp),%eax
  101b18:	89 45 f8             	mov    %eax,-0x8(%ebp)
  101b1b:	eb 09                	jmp    101b26 <.L66+0x37>
  101b1d:	8b 45 f8             	mov    -0x8(%ebp),%eax
  101b20:	8b 40 04             	mov    0x4(%eax),%eax
  101b23:	89 45 f8             	mov    %eax,-0x8(%ebp)
  101b26:	8b 45 f8             	mov    -0x8(%ebp),%eax
  101b29:	8b 40 04             	mov    0x4(%eax),%eax
  101b2c:	8b 40 04             	mov    0x4(%eax),%eax
  101b2f:	85 c0                	test   %eax,%eax
  101b31:	75 ea                	jne    101b1d <.L66+0x2e>
  101b33:	8b 45 f8             	mov    -0x8(%ebp),%eax
  101b36:	8b 40 04             	mov    0x4(%eax),%eax
  101b39:	8b 00                	mov    (%eax),%eax
  101b3b:	89 45 f4             	mov    %eax,-0xc(%ebp)
  101b3e:	8b 45 f8             	mov    -0x8(%ebp),%eax
  101b41:	c7 40 04 00 00 00 00 	movl   $0x0,0x4(%eax)
  101b48:	8b 45 f4             	mov    -0xc(%ebp),%eax
  101b4b:	c9                   	leave  
  101b4c:	c3                   	ret    

00101b4d <find_and_pop_block>:
  101b4d:	55                   	push   %ebp
  101b4e:	89 e5                	mov    %esp,%ebp
  101b50:	83 ec 10             	sub    $0x10,%esp
  101b53:	e8 a8 24 00 00       	call   104000 <__x86.get_pc_thunk.ax>
  101b58:	05 a8 34 00 00       	add    $0x34a8,%eax
  101b5d:	83 7d 0c 0b          	cmpl   $0xb,0xc(%ebp)
  101b61:	0f 87 d3 00 00 00    	ja     101c3a <.L117+0xa>
  101b67:	8b 55 0c             	mov    0xc(%ebp),%edx
  101b6a:	c1 e2 02             	shl    $0x2,%edx
  101b6d:	8b 94 02 98 00 00 00 	mov    0x98(%edx,%eax,1),%edx
  101b74:	01 c2                	add    %eax,%edx
  101b76:	ff e2                	jmp    *%edx

00101b78 <.L105>:
  101b78:	c7 c0 00 70 18 00    	mov    $0x187000,%eax
  101b7e:	8b 00                	mov    (%eax),%eax
  101b80:	8b 00                	mov    (%eax),%eax
  101b82:	89 45 fc             	mov    %eax,-0x4(%ebp)
  101b85:	e9 b0 00 00 00       	jmp    101c3a <.L117+0xa>

00101b8a <.L107>:
  101b8a:	c7 c0 00 70 18 00    	mov    $0x187000,%eax
  101b90:	8b 00                	mov    (%eax),%eax
  101b92:	8b 40 04             	mov    0x4(%eax),%eax
  101b95:	89 45 fc             	mov    %eax,-0x4(%ebp)
  101b98:	e9 9d 00 00 00       	jmp    101c3a <.L117+0xa>

00101b9d <.L108>:
  101b9d:	c7 c0 00 70 18 00    	mov    $0x187000,%eax
  101ba3:	8b 00                	mov    (%eax),%eax
  101ba5:	8b 40 08             	mov    0x8(%eax),%eax
  101ba8:	89 45 fc             	mov    %eax,-0x4(%ebp)
  101bab:	e9 8a 00 00 00       	jmp    101c3a <.L117+0xa>

00101bb0 <.L109>:
  101bb0:	c7 c0 00 70 18 00    	mov    $0x187000,%eax
  101bb6:	8b 00                	mov    (%eax),%eax
  101bb8:	8b 40 0c             	mov    0xc(%eax),%eax
  101bbb:	89 45 fc             	mov    %eax,-0x4(%ebp)
  101bbe:	eb 7a                	jmp    101c3a <.L117+0xa>

00101bc0 <.L110>:
  101bc0:	c7 c0 00 70 18 00    	mov    $0x187000,%eax
  101bc6:	8b 00                	mov    (%eax),%eax
  101bc8:	8b 40 10             	mov    0x10(%eax),%eax
  101bcb:	89 45 fc             	mov    %eax,-0x4(%ebp)
  101bce:	eb 6a                	jmp    101c3a <.L117+0xa>

00101bd0 <.L111>:
  101bd0:	c7 c0 00 70 18 00    	mov    $0x187000,%eax
  101bd6:	8b 00                	mov    (%eax),%eax
  101bd8:	8b 40 14             	mov    0x14(%eax),%eax
  101bdb:	89 45 fc             	mov    %eax,-0x4(%ebp)
  101bde:	eb 5a                	jmp    101c3a <.L117+0xa>

00101be0 <.L112>:
  101be0:	c7 c0 00 70 18 00    	mov    $0x187000,%eax
  101be6:	8b 00                	mov    (%eax),%eax
  101be8:	8b 40 18             	mov    0x18(%eax),%eax
  101beb:	89 45 fc             	mov    %eax,-0x4(%ebp)
  101bee:	eb 4a                	jmp    101c3a <.L117+0xa>

00101bf0 <.L113>:
  101bf0:	c7 c0 00 70 18 00    	mov    $0x187000,%eax
  101bf6:	8b 00                	mov    (%eax),%eax
  101bf8:	8b 40 1c             	mov    0x1c(%eax),%eax
  101bfb:	89 45 fc             	mov    %eax,-0x4(%ebp)
  101bfe:	eb 3a                	jmp    101c3a <.L117+0xa>

00101c00 <.L114>:
  101c00:	c7 c0 00 70 18 00    	mov    $0x187000,%eax
  101c06:	8b 00                	mov    (%eax),%eax
  101c08:	8b 40 20             	mov    0x20(%eax),%eax
  101c0b:	89 45 fc             	mov    %eax,-0x4(%ebp)
  101c0e:	eb 2a                	jmp    101c3a <.L117+0xa>

00101c10 <.L115>:
  101c10:	c7 c0 00 70 18 00    	mov    $0x187000,%eax
  101c16:	8b 00                	mov    (%eax),%eax
  101c18:	8b 40 24             	mov    0x24(%eax),%eax
  101c1b:	89 45 fc             	mov    %eax,-0x4(%ebp)
  101c1e:	eb 1a                	jmp    101c3a <.L117+0xa>

00101c20 <.L116>:
  101c20:	c7 c0 00 70 18 00    	mov    $0x187000,%eax
  101c26:	8b 00                	mov    (%eax),%eax
  101c28:	8b 40 28             	mov    0x28(%eax),%eax
  101c2b:	89 45 fc             	mov    %eax,-0x4(%ebp)
  101c2e:	eb 0a                	jmp    101c3a <.L117+0xa>

00101c30 <.L117>:
  101c30:	b8 ff ff ff ff       	mov    $0xffffffff,%eax
  101c35:	e9 8c 00 00 00       	jmp    101cc6 <.L117+0x96>
  101c3a:	83 7d fc 00          	cmpl   $0x0,-0x4(%ebp)
  101c3e:	75 07                	jne    101c47 <.L117+0x17>
  101c40:	b8 ff ff ff ff       	mov    $0xffffffff,%eax
  101c45:	eb 7f                	jmp    101cc6 <.L117+0x96>
  101c47:	8b 45 fc             	mov    -0x4(%ebp),%eax
  101c4a:	8b 40 04             	mov    0x4(%eax),%eax
  101c4d:	85 c0                	test   %eax,%eax
  101c4f:	75 1a                	jne    101c6b <.L117+0x3b>
  101c51:	8b 45 fc             	mov    -0x4(%ebp),%eax
  101c54:	8b 00                	mov    (%eax),%eax
  101c56:	39 45 08             	cmp    %eax,0x8(%ebp)
  101c59:	75 10                	jne    101c6b <.L117+0x3b>
  101c5b:	ff 75 0c             	pushl  0xc(%ebp)
  101c5e:	e8 7a fb ff ff       	call   1017dd <pop_block>
  101c63:	83 c4 04             	add    $0x4,%esp
  101c66:	8b 45 08             	mov    0x8(%ebp),%eax
  101c69:	eb 5b                	jmp    101cc6 <.L117+0x96>
  101c6b:	8b 45 fc             	mov    -0x4(%ebp),%eax
  101c6e:	89 45 f8             	mov    %eax,-0x8(%ebp)
  101c71:	eb 2a                	jmp    101c9d <.L117+0x6d>
  101c73:	8b 45 f8             	mov    -0x8(%ebp),%eax
  101c76:	8b 40 04             	mov    0x4(%eax),%eax
  101c79:	8b 00                	mov    (%eax),%eax
  101c7b:	39 45 08             	cmp    %eax,0x8(%ebp)
  101c7e:	75 14                	jne    101c94 <.L117+0x64>
  101c80:	8b 45 f8             	mov    -0x8(%ebp),%eax
  101c83:	8b 40 04             	mov    0x4(%eax),%eax
  101c86:	8b 50 04             	mov    0x4(%eax),%edx
  101c89:	8b 45 f8             	mov    -0x8(%ebp),%eax
  101c8c:	89 50 04             	mov    %edx,0x4(%eax)
  101c8f:	8b 45 08             	mov    0x8(%ebp),%eax
  101c92:	eb 32                	jmp    101cc6 <.L117+0x96>
  101c94:	8b 45 f8             	mov    -0x8(%ebp),%eax
  101c97:	8b 40 04             	mov    0x4(%eax),%eax
  101c9a:	89 45 f8             	mov    %eax,-0x8(%ebp)
  101c9d:	8b 45 f8             	mov    -0x8(%ebp),%eax
  101ca0:	8b 40 04             	mov    0x4(%eax),%eax
  101ca3:	85 c0                	test   %eax,%eax
  101ca5:	75 cc                	jne    101c73 <.L117+0x43>
  101ca7:	8b 45 f8             	mov    -0x8(%ebp),%eax
  101caa:	8b 00                	mov    (%eax),%eax
  101cac:	39 45 08             	cmp    %eax,0x8(%ebp)
  101caf:	75 10                	jne    101cc1 <.L117+0x91>
  101cb1:	ff 75 0c             	pushl  0xc(%ebp)
  101cb4:	e8 24 fb ff ff       	call   1017dd <pop_block>
  101cb9:	83 c4 04             	add    $0x4,%esp
  101cbc:	8b 45 08             	mov    0x8(%ebp),%eax
  101cbf:	eb 05                	jmp    101cc6 <.L117+0x96>
  101cc1:	b8 ff ff ff ff       	mov    $0xffffffff,%eax
  101cc6:	c9                   	leave  
  101cc7:	c3                   	ret    

00101cc8 <get_max_pm_addr>:
  101cc8:	55                   	push   %ebp
  101cc9:	89 e5                	mov    %esp,%ebp
  101ccb:	56                   	push   %esi
  101ccc:	53                   	push   %ebx
  101ccd:	83 ec 10             	sub    $0x10,%esp
  101cd0:	e8 2f 23 00 00       	call   104004 <__x86.get_pc_thunk.bx>
  101cd5:	81 c3 2b 33 00 00    	add    $0x332b,%ebx
  101cdb:	c7 45 f4 00 00 00 00 	movl   $0x0,-0xc(%ebp)
  101ce2:	c7 c0 08 40 10 00    	mov    $0x104008,%eax
  101ce8:	8b 00                	mov    (%eax),%eax
  101cea:	8b 40 30             	mov    0x30(%eax),%eax
  101ced:	89 45 f0             	mov    %eax,-0x10(%ebp)
  101cf0:	eb 6a                	jmp    101d5c <get_max_pm_addr+0x94>
  101cf2:	8b 45 f0             	mov    -0x10(%ebp),%eax
  101cf5:	8b 48 14             	mov    0x14(%eax),%ecx
  101cf8:	8b 45 f0             	mov    -0x10(%ebp),%eax
  101cfb:	8b 50 04             	mov    0x4(%eax),%edx
  101cfe:	8b 45 f0             	mov    -0x10(%ebp),%eax
  101d01:	8b 40 0c             	mov    0xc(%eax),%eax
  101d04:	8d 34 02             	lea    (%edx,%eax,1),%esi
  101d07:	8b 45 f0             	mov    -0x10(%ebp),%eax
  101d0a:	8b 50 0c             	mov    0xc(%eax),%edx
  101d0d:	8b 45 f0             	mov    -0x10(%ebp),%eax
  101d10:	8b 40 04             	mov    0x4(%eax),%eax
  101d13:	83 ec 0c             	sub    $0xc,%esp
  101d16:	51                   	push   %ecx
  101d17:	56                   	push   %esi
  101d18:	52                   	push   %edx
  101d19:	50                   	push   %eax
  101d1a:	8d 83 c8 00 00 00    	lea    0xc8(%ebx),%eax
  101d20:	50                   	push   %eax
  101d21:	e8 f0 eb ff ff       	call   100916 <printk>
  101d26:	83 c4 20             	add    $0x20,%esp
  101d29:	8b 45 f0             	mov    -0x10(%ebp),%eax
  101d2c:	8b 40 14             	mov    0x14(%eax),%eax
  101d2f:	83 f8 01             	cmp    $0x1,%eax
  101d32:	75 24                	jne    101d58 <get_max_pm_addr+0x90>
  101d34:	8b 45 f0             	mov    -0x10(%ebp),%eax
  101d37:	8b 50 04             	mov    0x4(%eax),%edx
  101d3a:	8b 45 f0             	mov    -0x10(%ebp),%eax
  101d3d:	8b 40 0c             	mov    0xc(%eax),%eax
  101d40:	01 d0                	add    %edx,%eax
  101d42:	39 45 f4             	cmp    %eax,-0xc(%ebp)
  101d45:	73 11                	jae    101d58 <get_max_pm_addr+0x90>
  101d47:	8b 45 f0             	mov    -0x10(%ebp),%eax
  101d4a:	8b 50 04             	mov    0x4(%eax),%edx
  101d4d:	8b 45 f0             	mov    -0x10(%ebp),%eax
  101d50:	8b 40 0c             	mov    0xc(%eax),%eax
  101d53:	01 d0                	add    %edx,%eax
  101d55:	89 45 f4             	mov    %eax,-0xc(%ebp)
  101d58:	83 45 f0 18          	addl   $0x18,-0x10(%ebp)
  101d5c:	c7 c0 08 40 10 00    	mov    $0x104008,%eax
  101d62:	8b 00                	mov    (%eax),%eax
  101d64:	8b 50 30             	mov    0x30(%eax),%edx
  101d67:	c7 c0 08 40 10 00    	mov    $0x104008,%eax
  101d6d:	8b 00                	mov    (%eax),%eax
  101d6f:	8b 40 2c             	mov    0x2c(%eax),%eax
  101d72:	01 d0                	add    %edx,%eax
  101d74:	39 45 f0             	cmp    %eax,-0x10(%ebp)
  101d77:	0f 82 75 ff ff ff    	jb     101cf2 <get_max_pm_addr+0x2a>
  101d7d:	8b 45 f4             	mov    -0xc(%ebp),%eax
  101d80:	8d 65 f8             	lea    -0x8(%ebp),%esp
  101d83:	5b                   	pop    %ebx
  101d84:	5e                   	pop    %esi
  101d85:	5d                   	pop    %ebp
  101d86:	c3                   	ret    

00101d87 <pmm_page_init>:
  101d87:	55                   	push   %ebp
  101d88:	89 e5                	mov    %esp,%ebp
  101d8a:	53                   	push   %ebx
  101d8b:	83 ec 14             	sub    $0x14,%esp
  101d8e:	e8 71 22 00 00       	call   104004 <__x86.get_pc_thunk.bx>
  101d93:	81 c3 6d 32 00 00    	add    $0x326d,%ebx
  101d99:	c7 c0 00 70 18 00    	mov    $0x187000,%eax
  101d9f:	8d 93 a0 11 08 00    	lea    0x811a0(%ebx),%edx
  101da5:	89 10                	mov    %edx,(%eax)
  101da7:	c7 c0 00 70 18 00    	mov    $0x187000,%eax
  101dad:	8b 00                	mov    (%eax),%eax
  101daf:	c7 00 00 00 00 00    	movl   $0x0,(%eax)
  101db5:	c7 c0 00 70 18 00    	mov    $0x187000,%eax
  101dbb:	8b 00                	mov    (%eax),%eax
  101dbd:	c7 40 04 00 00 00 00 	movl   $0x0,0x4(%eax)
  101dc4:	c7 c0 00 70 18 00    	mov    $0x187000,%eax
  101dca:	8b 00                	mov    (%eax),%eax
  101dcc:	c7 40 08 00 00 00 00 	movl   $0x0,0x8(%eax)
  101dd3:	c7 c0 00 70 18 00    	mov    $0x187000,%eax
  101dd9:	8b 00                	mov    (%eax),%eax
  101ddb:	c7 40 0c 00 00 00 00 	movl   $0x0,0xc(%eax)
  101de2:	c7 c0 00 70 18 00    	mov    $0x187000,%eax
  101de8:	8b 00                	mov    (%eax),%eax
  101dea:	c7 40 10 00 00 00 00 	movl   $0x0,0x10(%eax)
  101df1:	c7 c0 00 70 18 00    	mov    $0x187000,%eax
  101df7:	8b 00                	mov    (%eax),%eax
  101df9:	c7 40 14 00 00 00 00 	movl   $0x0,0x14(%eax)
  101e00:	c7 c0 00 70 18 00    	mov    $0x187000,%eax
  101e06:	8b 00                	mov    (%eax),%eax
  101e08:	c7 40 18 00 00 00 00 	movl   $0x0,0x18(%eax)
  101e0f:	c7 c0 00 70 18 00    	mov    $0x187000,%eax
  101e15:	8b 00                	mov    (%eax),%eax
  101e17:	c7 40 1c 00 00 00 00 	movl   $0x0,0x1c(%eax)
  101e1e:	c7 c0 00 70 18 00    	mov    $0x187000,%eax
  101e24:	8b 00                	mov    (%eax),%eax
  101e26:	c7 40 20 00 00 00 00 	movl   $0x0,0x20(%eax)
  101e2d:	c7 c0 00 70 18 00    	mov    $0x187000,%eax
  101e33:	8b 00                	mov    (%eax),%eax
  101e35:	c7 40 24 00 00 00 00 	movl   $0x0,0x24(%eax)
  101e3c:	c7 c0 00 70 18 00    	mov    $0x187000,%eax
  101e42:	8b 00                	mov    (%eax),%eax
  101e44:	c7 40 28 00 00 00 00 	movl   $0x0,0x28(%eax)
  101e4b:	c7 45 f4 00 00 00 00 	movl   $0x0,-0xc(%ebp)
  101e52:	eb 51                	jmp    101ea5 <pmm_page_init+0x11e>
  101e54:	8b 8b 1c f0 ff ff    	mov    -0xfe4(%ebx),%ecx
  101e5a:	8b 55 f4             	mov    -0xc(%ebp),%edx
  101e5d:	89 d0                	mov    %edx,%eax
  101e5f:	01 c0                	add    %eax,%eax
  101e61:	01 d0                	add    %edx,%eax
  101e63:	c1 e0 02             	shl    $0x2,%eax
  101e66:	8d 14 01             	lea    (%ecx,%eax,1),%edx
  101e69:	8b 45 f4             	mov    -0xc(%ebp),%eax
  101e6c:	89 02                	mov    %eax,(%edx)
  101e6e:	8b 8b 1c f0 ff ff    	mov    -0xfe4(%ebx),%ecx
  101e74:	8b 55 f4             	mov    -0xc(%ebp),%edx
  101e77:	89 d0                	mov    %edx,%eax
  101e79:	01 c0                	add    %eax,%eax
  101e7b:	01 d0                	add    %edx,%eax
  101e7d:	c1 e0 02             	shl    $0x2,%eax
  101e80:	01 c8                	add    %ecx,%eax
  101e82:	c6 40 08 01          	movb   $0x1,0x8(%eax)
  101e86:	8b 8b 1c f0 ff ff    	mov    -0xfe4(%ebx),%ecx
  101e8c:	8b 55 f4             	mov    -0xc(%ebp),%edx
  101e8f:	89 d0                	mov    %edx,%eax
  101e91:	01 c0                	add    %eax,%eax
  101e93:	01 d0                	add    %edx,%eax
  101e95:	c1 e0 02             	shl    $0x2,%eax
  101e98:	01 c8                	add    %ecx,%eax
  101e9a:	c7 40 04 00 00 00 00 	movl   $0x0,0x4(%eax)
  101ea1:	83 45 f4 01          	addl   $0x1,-0xc(%ebp)
  101ea5:	8b 55 f4             	mov    -0xc(%ebp),%edx
  101ea8:	8b 83 d8 11 08 00    	mov    0x811d8(%ebx),%eax
  101eae:	39 c2                	cmp    %eax,%edx
  101eb0:	72 a2                	jb     101e54 <pmm_page_init+0xcd>
  101eb2:	6a 00                	push   $0x0
  101eb4:	6a 00                	push   $0x0
  101eb6:	e8 dc f5 ff ff       	call   101497 <append_block>
  101ebb:	83 c4 08             	add    $0x8,%esp
  101ebe:	6a 00                	push   $0x0
  101ec0:	6a 01                	push   $0x1
  101ec2:	e8 d0 f5 ff ff       	call   101497 <append_block>
  101ec7:	83 c4 08             	add    $0x8,%esp
  101eca:	6a 01                	push   $0x1
  101ecc:	6a 02                	push   $0x2
  101ece:	e8 c4 f5 ff ff       	call   101497 <append_block>
  101ed3:	83 c4 08             	add    $0x8,%esp
  101ed6:	6a 02                	push   $0x2
  101ed8:	6a 04                	push   $0x4
  101eda:	e8 b8 f5 ff ff       	call   101497 <append_block>
  101edf:	83 c4 08             	add    $0x8,%esp
  101ee2:	6a 03                	push   $0x3
  101ee4:	6a 08                	push   $0x8
  101ee6:	e8 ac f5 ff ff       	call   101497 <append_block>
  101eeb:	83 c4 08             	add    $0x8,%esp
  101eee:	6a 04                	push   $0x4
  101ef0:	6a 10                	push   $0x10
  101ef2:	e8 a0 f5 ff ff       	call   101497 <append_block>
  101ef7:	83 c4 08             	add    $0x8,%esp
  101efa:	6a 05                	push   $0x5
  101efc:	6a 20                	push   $0x20
  101efe:	e8 94 f5 ff ff       	call   101497 <append_block>
  101f03:	83 c4 08             	add    $0x8,%esp
  101f06:	6a 06                	push   $0x6
  101f08:	6a 40                	push   $0x40
  101f0a:	e8 88 f5 ff ff       	call   101497 <append_block>
  101f0f:	83 c4 08             	add    $0x8,%esp
  101f12:	6a 07                	push   $0x7
  101f14:	68 80 00 00 00       	push   $0x80
  101f19:	e8 79 f5 ff ff       	call   101497 <append_block>
  101f1e:	83 c4 08             	add    $0x8,%esp
  101f21:	6a 08                	push   $0x8
  101f23:	68 00 01 00 00       	push   $0x100
  101f28:	e8 6a f5 ff ff       	call   101497 <append_block>
  101f2d:	83 c4 08             	add    $0x8,%esp
  101f30:	6a 09                	push   $0x9
  101f32:	68 00 02 00 00       	push   $0x200
  101f37:	e8 5b f5 ff ff       	call   101497 <append_block>
  101f3c:	83 c4 08             	add    $0x8,%esp
  101f3f:	6a 0a                	push   $0xa
  101f41:	68 00 04 00 00       	push   $0x400
  101f46:	e8 4c f5 ff ff       	call   101497 <append_block>
  101f4b:	83 c4 08             	add    $0x8,%esp
  101f4e:	c7 45 f0 00 08 00 00 	movl   $0x800,-0x10(%ebp)
  101f55:	eb 14                	jmp    101f6b <pmm_page_init+0x1e4>
  101f57:	6a 0a                	push   $0xa
  101f59:	ff 75 f0             	pushl  -0x10(%ebp)
  101f5c:	e8 36 f5 ff ff       	call   101497 <append_block>
  101f61:	83 c4 08             	add    $0x8,%esp
  101f64:	81 45 f0 00 04 00 00 	addl   $0x400,-0x10(%ebp)
  101f6b:	8b 83 d8 11 08 00    	mov    0x811d8(%ebx),%eax
  101f71:	8d 90 00 fc ff ff    	lea    -0x400(%eax),%edx
  101f77:	8b 45 f0             	mov    -0x10(%ebp),%eax
  101f7a:	39 c2                	cmp    %eax,%edx
  101f7c:	77 d9                	ja     101f57 <pmm_page_init+0x1d0>
  101f7e:	8b 45 f0             	mov    -0x10(%ebp),%eax
  101f81:	89 83 dc 11 08 00    	mov    %eax,0x811dc(%ebx)
  101f87:	8b 93 d8 11 08 00    	mov    0x811d8(%ebx),%edx
  101f8d:	8b 45 f0             	mov    -0x10(%ebp),%eax
  101f90:	29 c2                	sub    %eax,%edx
  101f92:	89 d0                	mov    %edx,%eax
  101f94:	83 ec 08             	sub    $0x8,%esp
  101f97:	50                   	push   %eax
  101f98:	8d 83 dc 00 00 00    	lea    0xdc(%ebx),%eax
  101f9e:	50                   	push   %eax
  101f9f:	e8 72 e9 ff ff       	call   100916 <printk>
  101fa4:	83 c4 10             	add    $0x10,%esp
  101fa7:	c7 45 ec 00 00 00 00 	movl   $0x0,-0x14(%ebp)
  101fae:	eb 57                	jmp    102007 <pmm_page_init+0x280>
  101fb0:	8b 83 cc 11 08 00    	mov    0x811cc(%ebx),%eax
  101fb6:	85 c0                	test   %eax,%eax
  101fb8:	75 25                	jne    101fdf <pmm_page_init+0x258>
  101fba:	8b 8b 1c f0 ff ff    	mov    -0xfe4(%ebx),%ecx
  101fc0:	8b 55 f0             	mov    -0x10(%ebp),%edx
  101fc3:	89 d0                	mov    %edx,%eax
  101fc5:	01 c0                	add    %eax,%eax
  101fc7:	01 d0                	add    %edx,%eax
  101fc9:	c1 e0 02             	shl    $0x2,%eax
  101fcc:	01 c8                	add    %ecx,%eax
  101fce:	89 83 cc 11 08 00    	mov    %eax,0x811cc(%ebx)
  101fd4:	8b 83 cc 11 08 00    	mov    0x811cc(%ebx),%eax
  101fda:	89 45 ec             	mov    %eax,-0x14(%ebp)
  101fdd:	eb 24                	jmp    102003 <pmm_page_init+0x27c>
  101fdf:	8b 8b 1c f0 ff ff    	mov    -0xfe4(%ebx),%ecx
  101fe5:	8b 55 f0             	mov    -0x10(%ebp),%edx
  101fe8:	89 d0                	mov    %edx,%eax
  101fea:	01 c0                	add    %eax,%eax
  101fec:	01 d0                	add    %edx,%eax
  101fee:	c1 e0 02             	shl    $0x2,%eax
  101ff1:	8d 14 01             	lea    (%ecx,%eax,1),%edx
  101ff4:	8b 45 ec             	mov    -0x14(%ebp),%eax
  101ff7:	89 50 04             	mov    %edx,0x4(%eax)
  101ffa:	8b 45 ec             	mov    -0x14(%ebp),%eax
  101ffd:	8b 40 04             	mov    0x4(%eax),%eax
  102000:	89 45 ec             	mov    %eax,-0x14(%ebp)
  102003:	83 45 f0 01          	addl   $0x1,-0x10(%ebp)
  102007:	8b 55 f0             	mov    -0x10(%ebp),%edx
  10200a:	8b 83 d8 11 08 00    	mov    0x811d8(%ebx),%eax
  102010:	39 c2                	cmp    %eax,%edx
  102012:	72 9c                	jb     101fb0 <pmm_page_init+0x229>
  102014:	90                   	nop
  102015:	8b 5d fc             	mov    -0x4(%ebp),%ebx
  102018:	c9                   	leave  
  102019:	c3                   	ret    

0010201a <alloc_helper>:
  10201a:	55                   	push   %ebp
  10201b:	89 e5                	mov    %esp,%ebp
  10201d:	83 ec 10             	sub    $0x10,%esp
  102020:	e8 db 1f 00 00       	call   104000 <__x86.get_pc_thunk.ax>
  102025:	05 db 2f 00 00       	add    $0x2fdb,%eax
  10202a:	eb 2e                	jmp    10205a <alloc_helper+0x40>
  10202c:	ff 75 0c             	pushl  0xc(%ebp)
  10202f:	e8 f3 f3 ff ff       	call   101427 <c_to_uint32>
  102034:	83 c4 04             	add    $0x4,%esp
  102037:	d1 e8                	shr    %eax
  102039:	89 c2                	mov    %eax,%edx
  10203b:	8b 45 10             	mov    0x10(%ebp),%eax
  10203e:	01 d0                	add    %edx,%eax
  102040:	89 45 fc             	mov    %eax,-0x4(%ebp)
  102043:	8b 45 10             	mov    0x10(%ebp),%eax
  102046:	8d 50 ff             	lea    -0x1(%eax),%edx
  102049:	8b 45 fc             	mov    -0x4(%ebp),%eax
  10204c:	52                   	push   %edx
  10204d:	50                   	push   %eax
  10204e:	e8 44 f4 ff ff       	call   101497 <append_block>
  102053:	83 c4 08             	add    $0x8,%esp
  102056:	83 6d 0c 01          	subl   $0x1,0xc(%ebp)
  10205a:	8b 45 0c             	mov    0xc(%ebp),%eax
  10205d:	3b 45 08             	cmp    0x8(%ebp),%eax
  102060:	75 ca                	jne    10202c <alloc_helper+0x12>
  102062:	8b 45 10             	mov    0x10(%ebp),%eax
  102065:	c9                   	leave  
  102066:	c3                   	ret    

00102067 <pmm_alloc_pages>:
  102067:	55                   	push   %ebp
  102068:	89 e5                	mov    %esp,%ebp
  10206a:	83 ec 30             	sub    $0x30,%esp
  10206d:	e8 8e 1f 00 00       	call   104000 <__x86.get_pc_thunk.ax>
  102072:	05 8e 2f 00 00       	add    $0x2f8e,%eax
  102077:	c7 45 d8 00 00 00 00 	movl   $0x0,-0x28(%ebp)
  10207e:	c7 45 dc 0b 00 00 00 	movl   $0xb,-0x24(%ebp)
  102085:	c6 45 e0 00          	movb   $0x0,-0x20(%ebp)
  102089:	81 7d 0c 00 04 00 00 	cmpl   $0x400,0xc(%ebp)
  102090:	77 06                	ja     102098 <pmm_alloc_pages+0x31>
  102092:	83 7d 0c 00          	cmpl   $0x0,0xc(%ebp)
  102096:	75 19                	jne    1020b1 <pmm_alloc_pages+0x4a>
  102098:	8b 45 08             	mov    0x8(%ebp),%eax
  10209b:	8b 55 d8             	mov    -0x28(%ebp),%edx
  10209e:	89 10                	mov    %edx,(%eax)
  1020a0:	8b 55 dc             	mov    -0x24(%ebp),%edx
  1020a3:	89 50 04             	mov    %edx,0x4(%eax)
  1020a6:	8b 55 e0             	mov    -0x20(%ebp),%edx
  1020a9:	89 50 08             	mov    %edx,0x8(%eax)
  1020ac:	e9 ce 00 00 00       	jmp    10217f <pmm_alloc_pages+0x118>
  1020b1:	8b 45 0c             	mov    0xc(%ebp),%eax
  1020b4:	89 45 fc             	mov    %eax,-0x4(%ebp)
  1020b7:	c7 45 f8 00 00 00 00 	movl   $0x0,-0x8(%ebp)
  1020be:	eb 07                	jmp    1020c7 <pmm_alloc_pages+0x60>
  1020c0:	83 45 f8 01          	addl   $0x1,-0x8(%ebp)
  1020c4:	d1 6d fc             	shrl   -0x4(%ebp)
  1020c7:	83 7d fc 00          	cmpl   $0x0,-0x4(%ebp)
  1020cb:	75 f3                	jne    1020c0 <pmm_alloc_pages+0x59>
  1020cd:	8b 45 f8             	mov    -0x8(%ebp),%eax
  1020d0:	83 e8 01             	sub    $0x1,%eax
  1020d3:	89 45 ec             	mov    %eax,-0x14(%ebp)
  1020d6:	8b 45 ec             	mov    -0x14(%ebp),%eax
  1020d9:	ba 01 00 00 00       	mov    $0x1,%edx
  1020de:	89 c1                	mov    %eax,%ecx
  1020e0:	d3 e2                	shl    %cl,%edx
  1020e2:	89 d0                	mov    %edx,%eax
  1020e4:	39 45 0c             	cmp    %eax,0xc(%ebp)
  1020e7:	75 04                	jne    1020ed <pmm_alloc_pages+0x86>
  1020e9:	83 6d f8 01          	subl   $0x1,-0x8(%ebp)
  1020ed:	8b 45 f8             	mov    -0x8(%ebp),%eax
  1020f0:	89 45 f4             	mov    %eax,-0xc(%ebp)
  1020f3:	8b 45 f4             	mov    -0xc(%ebp),%eax
  1020f6:	89 45 e8             	mov    %eax,-0x18(%ebp)
  1020f9:	c7 45 f0 ff ff ff ff 	movl   $0xffffffff,-0x10(%ebp)
  102100:	eb 18                	jmp    10211a <pmm_alloc_pages+0xb3>
  102102:	ff 75 f4             	pushl  -0xc(%ebp)
  102105:	e8 d3 f6 ff ff       	call   1017dd <pop_block>
  10210a:	83 c4 04             	add    $0x4,%esp
  10210d:	89 45 f0             	mov    %eax,-0x10(%ebp)
  102110:	83 7d f0 ff          	cmpl   $0xffffffff,-0x10(%ebp)
  102114:	75 0c                	jne    102122 <pmm_alloc_pages+0xbb>
  102116:	83 45 f4 01          	addl   $0x1,-0xc(%ebp)
  10211a:	83 7d f4 0a          	cmpl   $0xa,-0xc(%ebp)
  10211e:	76 e2                	jbe    102102 <pmm_alloc_pages+0x9b>
  102120:	eb 01                	jmp    102123 <pmm_alloc_pages+0xbc>
  102122:	90                   	nop
  102123:	83 7d f0 ff          	cmpl   $0xffffffff,-0x10(%ebp)
  102127:	75 16                	jne    10213f <pmm_alloc_pages+0xd8>
  102129:	8b 45 08             	mov    0x8(%ebp),%eax
  10212c:	8b 55 d8             	mov    -0x28(%ebp),%edx
  10212f:	89 10                	mov    %edx,(%eax)
  102131:	8b 55 dc             	mov    -0x24(%ebp),%edx
  102134:	89 50 04             	mov    %edx,0x4(%eax)
  102137:	8b 55 e0             	mov    -0x20(%ebp),%edx
  10213a:	89 50 08             	mov    %edx,0x8(%eax)
  10213d:	eb 40                	jmp    10217f <pmm_alloc_pages+0x118>
  10213f:	ff 75 f0             	pushl  -0x10(%ebp)
  102142:	ff 75 f4             	pushl  -0xc(%ebp)
  102145:	ff 75 e8             	pushl  -0x18(%ebp)
  102148:	e8 cd fe ff ff       	call   10201a <alloc_helper>
  10214d:	83 c4 0c             	add    $0xc,%esp
  102150:	89 45 e4             	mov    %eax,-0x1c(%ebp)
  102153:	ff 75 e4             	pushl  -0x1c(%ebp)
  102156:	e8 90 f2 ff ff       	call   1013eb <pmm_page_no_to_addr>
  10215b:	83 c4 04             	add    $0x4,%esp
  10215e:	89 45 d8             	mov    %eax,-0x28(%ebp)
  102161:	c6 45 e0 01          	movb   $0x1,-0x20(%ebp)
  102165:	8b 45 e8             	mov    -0x18(%ebp),%eax
  102168:	89 45 dc             	mov    %eax,-0x24(%ebp)
  10216b:	8b 45 08             	mov    0x8(%ebp),%eax
  10216e:	8b 55 d8             	mov    -0x28(%ebp),%edx
  102171:	89 10                	mov    %edx,(%eax)
  102173:	8b 55 dc             	mov    -0x24(%ebp),%edx
  102176:	89 50 04             	mov    %edx,0x4(%eax)
  102179:	8b 55 e0             	mov    -0x20(%ebp),%edx
  10217c:	89 50 08             	mov    %edx,0x8(%eax)
  10217f:	8b 45 08             	mov    0x8(%ebp),%eax
  102182:	c9                   	leave  
  102183:	c2 04 00             	ret    $0x4

00102186 <pmm_alloc_one_page>:
  102186:	55                   	push   %ebp
  102187:	89 e5                	mov    %esp,%ebp
  102189:	83 ec 20             	sub    $0x20,%esp
  10218c:	e8 6f 1e 00 00       	call   104000 <__x86.get_pc_thunk.ax>
  102191:	05 6f 2e 00 00       	add    $0x2e6f,%eax
  102196:	c7 45 ec 00 00 00 00 	movl   $0x0,-0x14(%ebp)
  10219d:	c7 45 f0 0b 00 00 00 	movl   $0xb,-0x10(%ebp)
  1021a4:	c6 45 f4 00          	movb   $0x0,-0xc(%ebp)
  1021a8:	8b 90 cc 11 08 00    	mov    0x811cc(%eax),%edx
  1021ae:	85 d2                	test   %edx,%edx
  1021b0:	0f 84 ac 00 00 00    	je     102262 <pmm_alloc_one_page+0xdc>
  1021b6:	8b 90 cc 11 08 00    	mov    0x811cc(%eax),%edx
  1021bc:	89 55 f8             	mov    %edx,-0x8(%ebp)
  1021bf:	8b 55 f8             	mov    -0x8(%ebp),%edx
  1021c2:	8b 52 04             	mov    0x4(%edx),%edx
  1021c5:	85 d2                	test   %edx,%edx
  1021c7:	75 3c                	jne    102205 <pmm_alloc_one_page+0x7f>
  1021c9:	c7 80 cc 11 08 00 00 	movl   $0x0,0x811cc(%eax)
  1021d0:	00 00 00 
  1021d3:	c6 45 f4 01          	movb   $0x1,-0xc(%ebp)
  1021d7:	c7 45 f0 00 00 00 00 	movl   $0x0,-0x10(%ebp)
  1021de:	8b 45 f8             	mov    -0x8(%ebp),%eax
  1021e1:	8b 00                	mov    (%eax),%eax
  1021e3:	50                   	push   %eax
  1021e4:	e8 02 f2 ff ff       	call   1013eb <pmm_page_no_to_addr>
  1021e9:	83 c4 04             	add    $0x4,%esp
  1021ec:	89 45 ec             	mov    %eax,-0x14(%ebp)
  1021ef:	8b 45 08             	mov    0x8(%ebp),%eax
  1021f2:	8b 55 ec             	mov    -0x14(%ebp),%edx
  1021f5:	89 10                	mov    %edx,(%eax)
  1021f7:	8b 55 f0             	mov    -0x10(%ebp),%edx
  1021fa:	89 50 04             	mov    %edx,0x4(%eax)
  1021fd:	8b 55 f4             	mov    -0xc(%ebp),%edx
  102200:	89 50 08             	mov    %edx,0x8(%eax)
  102203:	eb 6b                	jmp    102270 <pmm_alloc_one_page+0xea>
  102205:	8b 45 f8             	mov    -0x8(%ebp),%eax
  102208:	89 45 fc             	mov    %eax,-0x4(%ebp)
  10220b:	eb 09                	jmp    102216 <pmm_alloc_one_page+0x90>
  10220d:	8b 45 fc             	mov    -0x4(%ebp),%eax
  102210:	8b 40 04             	mov    0x4(%eax),%eax
  102213:	89 45 fc             	mov    %eax,-0x4(%ebp)
  102216:	8b 45 fc             	mov    -0x4(%ebp),%eax
  102219:	8b 40 04             	mov    0x4(%eax),%eax
  10221c:	8b 40 04             	mov    0x4(%eax),%eax
  10221f:	85 c0                	test   %eax,%eax
  102221:	75 ea                	jne    10220d <pmm_alloc_one_page+0x87>
  102223:	c6 45 f4 01          	movb   $0x1,-0xc(%ebp)
  102227:	c7 45 f0 00 00 00 00 	movl   $0x0,-0x10(%ebp)
  10222e:	8b 45 fc             	mov    -0x4(%ebp),%eax
  102231:	8b 40 04             	mov    0x4(%eax),%eax
  102234:	8b 00                	mov    (%eax),%eax
  102236:	50                   	push   %eax
  102237:	e8 af f1 ff ff       	call   1013eb <pmm_page_no_to_addr>
  10223c:	83 c4 04             	add    $0x4,%esp
  10223f:	89 45 ec             	mov    %eax,-0x14(%ebp)
  102242:	8b 45 fc             	mov    -0x4(%ebp),%eax
  102245:	c7 40 04 00 00 00 00 	movl   $0x0,0x4(%eax)
  10224c:	8b 45 08             	mov    0x8(%ebp),%eax
  10224f:	8b 55 ec             	mov    -0x14(%ebp),%edx
  102252:	89 10                	mov    %edx,(%eax)
  102254:	8b 55 f0             	mov    -0x10(%ebp),%edx
  102257:	89 50 04             	mov    %edx,0x4(%eax)
  10225a:	8b 55 f4             	mov    -0xc(%ebp),%edx
  10225d:	89 50 08             	mov    %edx,0x8(%eax)
  102260:	eb 0e                	jmp    102270 <pmm_alloc_one_page+0xea>
  102262:	8b 45 08             	mov    0x8(%ebp),%eax
  102265:	6a 01                	push   $0x1
  102267:	50                   	push   %eax
  102268:	e8 fa fd ff ff       	call   102067 <pmm_alloc_pages>
  10226d:	83 c4 04             	add    $0x4,%esp
  102270:	8b 45 08             	mov    0x8(%ebp),%eax
  102273:	c9                   	leave  
  102274:	c2 04 00             	ret    $0x4

00102277 <free_helper>:
  102277:	55                   	push   %ebp
  102278:	89 e5                	mov    %esp,%ebp
  10227a:	53                   	push   %ebx
  10227b:	83 ec 14             	sub    $0x14,%esp
  10227e:	e8 81 1d 00 00       	call   104004 <__x86.get_pc_thunk.bx>
  102283:	81 c3 7d 2d 00 00    	add    $0x2d7d,%ebx
  102289:	ff 75 0c             	pushl  0xc(%ebp)
  10228c:	e8 96 f1 ff ff       	call   101427 <c_to_uint32>
  102291:	83 c4 04             	add    $0x4,%esp
  102294:	83 ec 08             	sub    $0x8,%esp
  102297:	50                   	push   %eax
  102298:	8d 83 05 01 00 00    	lea    0x105(%ebx),%eax
  10229e:	50                   	push   %eax
  10229f:	e8 72 e6 ff ff       	call   100916 <printk>
  1022a4:	83 c4 10             	add    $0x10,%esp
  1022a7:	83 ec 08             	sub    $0x8,%esp
  1022aa:	ff 75 0c             	pushl  0xc(%ebp)
  1022ad:	ff 75 08             	pushl  0x8(%ebp)
  1022b0:	e8 96 f1 ff ff       	call   10144b <get_partner_page_no>
  1022b5:	83 c4 10             	add    $0x10,%esp
  1022b8:	89 45 f4             	mov    %eax,-0xc(%ebp)
  1022bb:	83 ec 08             	sub    $0x8,%esp
  1022be:	ff 75 0c             	pushl  0xc(%ebp)
  1022c1:	ff 75 f4             	pushl  -0xc(%ebp)
  1022c4:	e8 84 f8 ff ff       	call   101b4d <find_and_pop_block>
  1022c9:	83 c4 10             	add    $0x10,%esp
  1022cc:	83 f8 ff             	cmp    $0xffffffff,%eax
  1022cf:	74 1f                	je     1022f0 <free_helper+0x79>
  1022d1:	8b 45 0c             	mov    0xc(%ebp),%eax
  1022d4:	8d 50 01             	lea    0x1(%eax),%edx
  1022d7:	8b 45 f4             	mov    -0xc(%ebp),%eax
  1022da:	39 45 08             	cmp    %eax,0x8(%ebp)
  1022dd:	0f 46 45 08          	cmovbe 0x8(%ebp),%eax
  1022e1:	83 ec 08             	sub    $0x8,%esp
  1022e4:	52                   	push   %edx
  1022e5:	50                   	push   %eax
  1022e6:	e8 8c ff ff ff       	call   102277 <free_helper>
  1022eb:	83 c4 10             	add    $0x10,%esp
  1022ee:	eb 12                	jmp    102302 <free_helper+0x8b>
  1022f0:	8b 45 08             	mov    0x8(%ebp),%eax
  1022f3:	83 ec 08             	sub    $0x8,%esp
  1022f6:	ff 75 0c             	pushl  0xc(%ebp)
  1022f9:	50                   	push   %eax
  1022fa:	e8 98 f1 ff ff       	call   101497 <append_block>
  1022ff:	83 c4 10             	add    $0x10,%esp
  102302:	90                   	nop
  102303:	8b 5d fc             	mov    -0x4(%ebp),%ebx
  102306:	c9                   	leave  
  102307:	c3                   	ret    

00102308 <pmm_free_page>:
  102308:	55                   	push   %ebp
  102309:	89 e5                	mov    %esp,%ebp
  10230b:	53                   	push   %ebx
  10230c:	83 ec 14             	sub    $0x14,%esp
  10230f:	e8 f0 1c 00 00       	call   104004 <__x86.get_pc_thunk.bx>
  102314:	81 c3 ec 2c 00 00    	add    $0x2cec,%ebx
  10231a:	8b 45 08             	mov    0x8(%ebp),%eax
  10231d:	50                   	push   %eax
  10231e:	e8 e5 f0 ff ff       	call   101408 <addr_to_pmm_page_no>
  102323:	83 c4 04             	add    $0x4,%esp
  102326:	89 45 f0             	mov    %eax,-0x10(%ebp)
  102329:	8b 83 d8 11 08 00    	mov    0x811d8(%ebx),%eax
  10232f:	39 45 f0             	cmp    %eax,-0x10(%ebp)
  102332:	73 7f                	jae    1023b3 <pmm_free_page+0xab>
  102334:	8b 83 dc 11 08 00    	mov    0x811dc(%ebx),%eax
  10233a:	39 45 f0             	cmp    %eax,-0x10(%ebp)
  10233d:	73 14                	jae    102353 <pmm_free_page+0x4b>
  10233f:	8b 45 0c             	mov    0xc(%ebp),%eax
  102342:	83 ec 08             	sub    $0x8,%esp
  102345:	50                   	push   %eax
  102346:	ff 75 f0             	pushl  -0x10(%ebp)
  102349:	e8 29 ff ff ff       	call   102277 <free_helper>
  10234e:	83 c4 10             	add    $0x10,%esp
  102351:	eb 59                	jmp    1023ac <pmm_free_page+0xa4>
  102353:	8b 83 cc 11 08 00    	mov    0x811cc(%ebx),%eax
  102359:	89 45 f4             	mov    %eax,-0xc(%ebp)
  10235c:	83 7d f4 00          	cmpl   $0x0,-0xc(%ebp)
  102360:	75 25                	jne    102387 <pmm_free_page+0x7f>
  102362:	8b 8b 1c f0 ff ff    	mov    -0xfe4(%ebx),%ecx
  102368:	8b 55 f0             	mov    -0x10(%ebp),%edx
  10236b:	89 d0                	mov    %edx,%eax
  10236d:	01 c0                	add    %eax,%eax
  10236f:	01 d0                	add    %edx,%eax
  102371:	c1 e0 02             	shl    $0x2,%eax
  102374:	01 c8                	add    %ecx,%eax
  102376:	89 83 cc 11 08 00    	mov    %eax,0x811cc(%ebx)
  10237c:	eb 2e                	jmp    1023ac <pmm_free_page+0xa4>
  10237e:	8b 45 f4             	mov    -0xc(%ebp),%eax
  102381:	8b 40 04             	mov    0x4(%eax),%eax
  102384:	89 45 f4             	mov    %eax,-0xc(%ebp)
  102387:	8b 45 f4             	mov    -0xc(%ebp),%eax
  10238a:	8b 40 04             	mov    0x4(%eax),%eax
  10238d:	85 c0                	test   %eax,%eax
  10238f:	75 ed                	jne    10237e <pmm_free_page+0x76>
  102391:	8b 8b 1c f0 ff ff    	mov    -0xfe4(%ebx),%ecx
  102397:	8b 55 f0             	mov    -0x10(%ebp),%edx
  10239a:	89 d0                	mov    %edx,%eax
  10239c:	01 c0                	add    %eax,%eax
  10239e:	01 d0                	add    %edx,%eax
  1023a0:	c1 e0 02             	shl    $0x2,%eax
  1023a3:	8d 14 01             	lea    (%ecx,%eax,1),%edx
  1023a6:	8b 45 f4             	mov    -0xc(%ebp),%eax
  1023a9:	89 50 04             	mov    %edx,0x4(%eax)
  1023ac:	b8 01 00 00 00       	mov    $0x1,%eax
  1023b1:	eb 05                	jmp    1023b8 <pmm_free_page+0xb0>
  1023b3:	b8 01 00 00 00       	mov    $0x1,%eax
  1023b8:	8b 5d fc             	mov    -0x4(%ebp),%ebx
  1023bb:	c9                   	leave  
  1023bc:	c3                   	ret    

001023bd <counte_helper>:
  1023bd:	55                   	push   %ebp
  1023be:	89 e5                	mov    %esp,%ebp
  1023c0:	83 ec 10             	sub    $0x10,%esp
  1023c3:	e8 38 1c 00 00       	call   104000 <__x86.get_pc_thunk.ax>
  1023c8:	05 38 2c 00 00       	add    $0x2c38,%eax
  1023cd:	c7 45 fc 00 00 00 00 	movl   $0x0,-0x4(%ebp)
  1023d4:	eb 0d                	jmp    1023e3 <counte_helper+0x26>
  1023d6:	83 45 fc 01          	addl   $0x1,-0x4(%ebp)
  1023da:	8b 45 08             	mov    0x8(%ebp),%eax
  1023dd:	8b 40 04             	mov    0x4(%eax),%eax
  1023e0:	89 45 08             	mov    %eax,0x8(%ebp)
  1023e3:	83 7d 08 00          	cmpl   $0x0,0x8(%ebp)
  1023e7:	75 ed                	jne    1023d6 <counte_helper+0x19>
  1023e9:	8b 45 fc             	mov    -0x4(%ebp),%eax
  1023ec:	c9                   	leave  
  1023ed:	c3                   	ret    

001023ee <get_block_count>:
  1023ee:	55                   	push   %ebp
  1023ef:	89 e5                	mov    %esp,%ebp
  1023f1:	53                   	push   %ebx
  1023f2:	e8 0d 1c 00 00       	call   104004 <__x86.get_pc_thunk.bx>
  1023f7:	81 c3 09 2c 00 00    	add    $0x2c09,%ebx
  1023fd:	c7 c0 00 70 18 00    	mov    $0x187000,%eax
  102403:	8b 00                	mov    (%eax),%eax
  102405:	8b 00                	mov    (%eax),%eax
  102407:	50                   	push   %eax
  102408:	e8 b0 ff ff ff       	call   1023bd <counte_helper>
  10240d:	83 c4 04             	add    $0x4,%esp
  102410:	89 83 60 11 08 00    	mov    %eax,0x81160(%ebx)
  102416:	c7 c0 00 70 18 00    	mov    $0x187000,%eax
  10241c:	8b 00                	mov    (%eax),%eax
  10241e:	8b 40 04             	mov    0x4(%eax),%eax
  102421:	50                   	push   %eax
  102422:	e8 96 ff ff ff       	call   1023bd <counte_helper>
  102427:	83 c4 04             	add    $0x4,%esp
  10242a:	89 83 64 11 08 00    	mov    %eax,0x81164(%ebx)
  102430:	c7 c0 00 70 18 00    	mov    $0x187000,%eax
  102436:	8b 00                	mov    (%eax),%eax
  102438:	8b 40 08             	mov    0x8(%eax),%eax
  10243b:	50                   	push   %eax
  10243c:	e8 7c ff ff ff       	call   1023bd <counte_helper>
  102441:	83 c4 04             	add    $0x4,%esp
  102444:	89 83 68 11 08 00    	mov    %eax,0x81168(%ebx)
  10244a:	c7 c0 00 70 18 00    	mov    $0x187000,%eax
  102450:	8b 00                	mov    (%eax),%eax
  102452:	8b 40 0c             	mov    0xc(%eax),%eax
  102455:	50                   	push   %eax
  102456:	e8 62 ff ff ff       	call   1023bd <counte_helper>
  10245b:	83 c4 04             	add    $0x4,%esp
  10245e:	89 83 6c 11 08 00    	mov    %eax,0x8116c(%ebx)
  102464:	c7 c0 00 70 18 00    	mov    $0x187000,%eax
  10246a:	8b 00                	mov    (%eax),%eax
  10246c:	8b 40 10             	mov    0x10(%eax),%eax
  10246f:	50                   	push   %eax
  102470:	e8 48 ff ff ff       	call   1023bd <counte_helper>
  102475:	83 c4 04             	add    $0x4,%esp
  102478:	89 83 70 11 08 00    	mov    %eax,0x81170(%ebx)
  10247e:	c7 c0 00 70 18 00    	mov    $0x187000,%eax
  102484:	8b 00                	mov    (%eax),%eax
  102486:	8b 40 14             	mov    0x14(%eax),%eax
  102489:	50                   	push   %eax
  10248a:	e8 2e ff ff ff       	call   1023bd <counte_helper>
  10248f:	83 c4 04             	add    $0x4,%esp
  102492:	89 83 74 11 08 00    	mov    %eax,0x81174(%ebx)
  102498:	c7 c0 00 70 18 00    	mov    $0x187000,%eax
  10249e:	8b 00                	mov    (%eax),%eax
  1024a0:	8b 40 18             	mov    0x18(%eax),%eax
  1024a3:	50                   	push   %eax
  1024a4:	e8 14 ff ff ff       	call   1023bd <counte_helper>
  1024a9:	83 c4 04             	add    $0x4,%esp
  1024ac:	89 83 78 11 08 00    	mov    %eax,0x81178(%ebx)
  1024b2:	c7 c0 00 70 18 00    	mov    $0x187000,%eax
  1024b8:	8b 00                	mov    (%eax),%eax
  1024ba:	8b 40 1c             	mov    0x1c(%eax),%eax
  1024bd:	50                   	push   %eax
  1024be:	e8 fa fe ff ff       	call   1023bd <counte_helper>
  1024c3:	83 c4 04             	add    $0x4,%esp
  1024c6:	89 83 7c 11 08 00    	mov    %eax,0x8117c(%ebx)
  1024cc:	c7 c0 00 70 18 00    	mov    $0x187000,%eax
  1024d2:	8b 00                	mov    (%eax),%eax
  1024d4:	8b 40 20             	mov    0x20(%eax),%eax
  1024d7:	50                   	push   %eax
  1024d8:	e8 e0 fe ff ff       	call   1023bd <counte_helper>
  1024dd:	83 c4 04             	add    $0x4,%esp
  1024e0:	89 83 80 11 08 00    	mov    %eax,0x81180(%ebx)
  1024e6:	c7 c0 00 70 18 00    	mov    $0x187000,%eax
  1024ec:	8b 00                	mov    (%eax),%eax
  1024ee:	8b 40 24             	mov    0x24(%eax),%eax
  1024f1:	50                   	push   %eax
  1024f2:	e8 c6 fe ff ff       	call   1023bd <counte_helper>
  1024f7:	83 c4 04             	add    $0x4,%esp
  1024fa:	89 83 84 11 08 00    	mov    %eax,0x81184(%ebx)
  102500:	c7 c0 00 70 18 00    	mov    $0x187000,%eax
  102506:	8b 00                	mov    (%eax),%eax
  102508:	8b 40 28             	mov    0x28(%eax),%eax
  10250b:	50                   	push   %eax
  10250c:	e8 ac fe ff ff       	call   1023bd <counte_helper>
  102511:	83 c4 04             	add    $0x4,%esp
  102514:	89 83 88 11 08 00    	mov    %eax,0x81188(%ebx)
  10251a:	c7 83 8c 11 08 00 00 	movl   $0x0,0x8118c(%ebx)
  102521:	00 00 00 
  102524:	8d 83 60 11 08 00    	lea    0x81160(%ebx),%eax
  10252a:	8b 5d fc             	mov    -0x4(%ebp),%ebx
  10252d:	c9                   	leave  
  10252e:	c3                   	ret    

0010252f <get_single_count>:
  10252f:	55                   	push   %ebp
  102530:	89 e5                	mov    %esp,%ebp
  102532:	83 ec 10             	sub    $0x10,%esp
  102535:	e8 c6 1a 00 00       	call   104000 <__x86.get_pc_thunk.ax>
  10253a:	05 c6 2a 00 00       	add    $0x2ac6,%eax
  10253f:	8b 80 cc 11 08 00    	mov    0x811cc(%eax),%eax
  102545:	89 45 fc             	mov    %eax,-0x4(%ebp)
  102548:	c7 45 f8 00 00 00 00 	movl   $0x0,-0x8(%ebp)
  10254f:	eb 0d                	jmp    10255e <get_single_count+0x2f>
  102551:	83 45 f8 01          	addl   $0x1,-0x8(%ebp)
  102555:	8b 45 fc             	mov    -0x4(%ebp),%eax
  102558:	8b 40 04             	mov    0x4(%eax),%eax
  10255b:	89 45 fc             	mov    %eax,-0x4(%ebp)
  10255e:	83 7d fc 00          	cmpl   $0x0,-0x4(%ebp)
  102562:	75 ed                	jne    102551 <get_single_count+0x22>
  102564:	8b 45 f8             	mov    -0x8(%ebp),%eax
  102567:	c9                   	leave  
  102568:	c3                   	ret    

00102569 <pmm_show_page_count>:
  102569:	55                   	push   %ebp
  10256a:	89 e5                	mov    %esp,%ebp
  10256c:	53                   	push   %ebx
  10256d:	83 ec 04             	sub    $0x4,%esp
  102570:	e8 8f 1a 00 00       	call   104004 <__x86.get_pc_thunk.bx>
  102575:	81 c3 8b 2a 00 00    	add    $0x2a8b,%ebx
  10257b:	e8 6e fe ff ff       	call   1023ee <get_block_count>
  102580:	83 ec 0c             	sub    $0xc,%esp
  102583:	8d 83 15 01 00 00    	lea    0x115(%ebx),%eax
  102589:	50                   	push   %eax
  10258a:	e8 87 e3 ff ff       	call   100916 <printk>
  10258f:	83 c4 10             	add    $0x10,%esp
  102592:	8b 83 60 11 08 00    	mov    0x81160(%ebx),%eax
  102598:	83 ec 08             	sub    $0x8,%esp
  10259b:	50                   	push   %eax
  10259c:	8d 83 1f 01 00 00    	lea    0x11f(%ebx),%eax
  1025a2:	50                   	push   %eax
  1025a3:	e8 6e e3 ff ff       	call   100916 <printk>
  1025a8:	83 c4 10             	add    $0x10,%esp
  1025ab:	8b 83 64 11 08 00    	mov    0x81164(%ebx),%eax
  1025b1:	83 ec 08             	sub    $0x8,%esp
  1025b4:	50                   	push   %eax
  1025b5:	8d 83 2d 01 00 00    	lea    0x12d(%ebx),%eax
  1025bb:	50                   	push   %eax
  1025bc:	e8 55 e3 ff ff       	call   100916 <printk>
  1025c1:	83 c4 10             	add    $0x10,%esp
  1025c4:	8b 83 68 11 08 00    	mov    0x81168(%ebx),%eax
  1025ca:	83 ec 08             	sub    $0x8,%esp
  1025cd:	50                   	push   %eax
  1025ce:	8d 83 3b 01 00 00    	lea    0x13b(%ebx),%eax
  1025d4:	50                   	push   %eax
  1025d5:	e8 3c e3 ff ff       	call   100916 <printk>
  1025da:	83 c4 10             	add    $0x10,%esp
  1025dd:	8b 83 6c 11 08 00    	mov    0x8116c(%ebx),%eax
  1025e3:	83 ec 08             	sub    $0x8,%esp
  1025e6:	50                   	push   %eax
  1025e7:	8d 83 49 01 00 00    	lea    0x149(%ebx),%eax
  1025ed:	50                   	push   %eax
  1025ee:	e8 23 e3 ff ff       	call   100916 <printk>
  1025f3:	83 c4 10             	add    $0x10,%esp
  1025f6:	8b 83 70 11 08 00    	mov    0x81170(%ebx),%eax
  1025fc:	83 ec 08             	sub    $0x8,%esp
  1025ff:	50                   	push   %eax
  102600:	8d 83 57 01 00 00    	lea    0x157(%ebx),%eax
  102606:	50                   	push   %eax
  102607:	e8 0a e3 ff ff       	call   100916 <printk>
  10260c:	83 c4 10             	add    $0x10,%esp
  10260f:	8b 83 74 11 08 00    	mov    0x81174(%ebx),%eax
  102615:	83 ec 08             	sub    $0x8,%esp
  102618:	50                   	push   %eax
  102619:	8d 83 66 01 00 00    	lea    0x166(%ebx),%eax
  10261f:	50                   	push   %eax
  102620:	e8 f1 e2 ff ff       	call   100916 <printk>
  102625:	83 c4 10             	add    $0x10,%esp
  102628:	8b 83 78 11 08 00    	mov    0x81178(%ebx),%eax
  10262e:	83 ec 08             	sub    $0x8,%esp
  102631:	50                   	push   %eax
  102632:	8d 83 75 01 00 00    	lea    0x175(%ebx),%eax
  102638:	50                   	push   %eax
  102639:	e8 d8 e2 ff ff       	call   100916 <printk>
  10263e:	83 c4 10             	add    $0x10,%esp
  102641:	8b 83 7c 11 08 00    	mov    0x8117c(%ebx),%eax
  102647:	83 ec 08             	sub    $0x8,%esp
  10264a:	50                   	push   %eax
  10264b:	8d 83 84 01 00 00    	lea    0x184(%ebx),%eax
  102651:	50                   	push   %eax
  102652:	e8 bf e2 ff ff       	call   100916 <printk>
  102657:	83 c4 10             	add    $0x10,%esp
  10265a:	8b 83 80 11 08 00    	mov    0x81180(%ebx),%eax
  102660:	83 ec 08             	sub    $0x8,%esp
  102663:	50                   	push   %eax
  102664:	8d 83 94 01 00 00    	lea    0x194(%ebx),%eax
  10266a:	50                   	push   %eax
  10266b:	e8 a6 e2 ff ff       	call   100916 <printk>
  102670:	83 c4 10             	add    $0x10,%esp
  102673:	8b 83 84 11 08 00    	mov    0x81184(%ebx),%eax
  102679:	83 ec 08             	sub    $0x8,%esp
  10267c:	50                   	push   %eax
  10267d:	8d 83 a4 01 00 00    	lea    0x1a4(%ebx),%eax
  102683:	50                   	push   %eax
  102684:	e8 8d e2 ff ff       	call   100916 <printk>
  102689:	83 c4 10             	add    $0x10,%esp
  10268c:	8b 83 88 11 08 00    	mov    0x81188(%ebx),%eax
  102692:	83 ec 08             	sub    $0x8,%esp
  102695:	50                   	push   %eax
  102696:	8d 83 b4 01 00 00    	lea    0x1b4(%ebx),%eax
  10269c:	50                   	push   %eax
  10269d:	e8 74 e2 ff ff       	call   100916 <printk>
  1026a2:	83 c4 10             	add    $0x10,%esp
  1026a5:	e8 85 fe ff ff       	call   10252f <get_single_count>
  1026aa:	83 ec 08             	sub    $0x8,%esp
  1026ad:	50                   	push   %eax
  1026ae:	8d 83 c5 01 00 00    	lea    0x1c5(%ebx),%eax
  1026b4:	50                   	push   %eax
  1026b5:	e8 5c e2 ff ff       	call   100916 <printk>
  1026ba:	83 c4 10             	add    $0x10,%esp
  1026bd:	90                   	nop
  1026be:	8b 5d fc             	mov    -0x4(%ebp),%ebx
  1026c1:	c9                   	leave  
  1026c2:	c3                   	ret    

001026c3 <pmm_init>:
  1026c3:	55                   	push   %ebp
  1026c4:	89 e5                	mov    %esp,%ebp
  1026c6:	53                   	push   %ebx
  1026c7:	83 ec 04             	sub    $0x4,%esp
  1026ca:	e8 35 19 00 00       	call   104004 <__x86.get_pc_thunk.bx>
  1026cf:	81 c3 31 29 00 00    	add    $0x2931,%ebx
  1026d5:	83 ec 08             	sub    $0x8,%esp
  1026d8:	c7 c0 00 00 10 00    	mov    $0x100000,%eax
  1026de:	50                   	push   %eax
  1026df:	8d 83 e3 01 00 00    	lea    0x1e3(%ebx),%eax
  1026e5:	50                   	push   %eax
  1026e6:	e8 2b e2 ff ff       	call   100916 <printk>
  1026eb:	83 c4 10             	add    $0x10,%esp
  1026ee:	83 ec 08             	sub    $0x8,%esp
  1026f1:	c7 c0 00 10 19 00    	mov    $0x191000,%eax
  1026f7:	50                   	push   %eax
  1026f8:	8d 83 e3 01 00 00    	lea    0x1e3(%ebx),%eax
  1026fe:	50                   	push   %eax
  1026ff:	e8 12 e2 ff ff       	call   100916 <printk>
  102704:	83 c4 10             	add    $0x10,%esp
  102707:	c7 c0 00 10 19 00    	mov    $0x191000,%eax
  10270d:	c1 e8 0c             	shr    $0xc,%eax
  102710:	83 c0 01             	add    $0x1,%eax
  102713:	c1 e0 0c             	shl    $0xc,%eax
  102716:	89 83 d0 11 08 00    	mov    %eax,0x811d0(%ebx)
  10271c:	e8 a7 f5 ff ff       	call   101cc8 <get_max_pm_addr>
  102721:	25 00 f0 ff ff       	and    $0xfffff000,%eax
  102726:	89 83 d4 11 08 00    	mov    %eax,0x811d4(%ebx)
  10272c:	8b 93 d4 11 08 00    	mov    0x811d4(%ebx),%edx
  102732:	8b 83 d0 11 08 00    	mov    0x811d0(%ebx),%eax
  102738:	29 c2                	sub    %eax,%edx
  10273a:	89 d0                	mov    %edx,%eax
  10273c:	c1 e8 0c             	shr    $0xc,%eax
  10273f:	89 83 d8 11 08 00    	mov    %eax,0x811d8(%ebx)
  102745:	8b 83 d0 11 08 00    	mov    0x811d0(%ebx),%eax
  10274b:	83 ec 08             	sub    $0x8,%esp
  10274e:	50                   	push   %eax
  10274f:	8d 83 e3 01 00 00    	lea    0x1e3(%ebx),%eax
  102755:	50                   	push   %eax
  102756:	e8 bb e1 ff ff       	call   100916 <printk>
  10275b:	83 c4 10             	add    $0x10,%esp
  10275e:	8b 83 d4 11 08 00    	mov    0x811d4(%ebx),%eax
  102764:	83 ec 08             	sub    $0x8,%esp
  102767:	50                   	push   %eax
  102768:	8d 83 e3 01 00 00    	lea    0x1e3(%ebx),%eax
  10276e:	50                   	push   %eax
  10276f:	e8 a2 e1 ff ff       	call   100916 <printk>
  102774:	83 c4 10             	add    $0x10,%esp
  102777:	8b 83 d8 11 08 00    	mov    0x811d8(%ebx),%eax
  10277d:	83 ec 08             	sub    $0x8,%esp
  102780:	50                   	push   %eax
  102781:	8d 83 e9 01 00 00    	lea    0x1e9(%ebx),%eax
  102787:	50                   	push   %eax
  102788:	e8 89 e1 ff ff       	call   100916 <printk>
  10278d:	83 c4 10             	add    $0x10,%esp
  102790:	83 ec 0c             	sub    $0xc,%esp
  102793:	68 00 7d 00 00       	push   $0x7d00
  102798:	e8 4e ec ff ff       	call   1013eb <pmm_page_no_to_addr>
  10279d:	83 c4 10             	add    $0x10,%esp
  1027a0:	83 ec 08             	sub    $0x8,%esp
  1027a3:	50                   	push   %eax
  1027a4:	8d 83 ed 01 00 00    	lea    0x1ed(%ebx),%eax
  1027aa:	50                   	push   %eax
  1027ab:	e8 66 e1 ff ff       	call   100916 <printk>
  1027b0:	83 c4 10             	add    $0x10,%esp
  1027b3:	e8 cf f5 ff ff       	call   101d87 <pmm_page_init>
  1027b8:	8b 83 cc 11 08 00    	mov    0x811cc(%ebx),%eax
  1027be:	8b 40 04             	mov    0x4(%eax),%eax
  1027c1:	8b 00                	mov    (%eax),%eax
  1027c3:	83 ec 08             	sub    $0x8,%esp
  1027c6:	50                   	push   %eax
  1027c7:	8d 83 f9 01 00 00    	lea    0x1f9(%ebx),%eax
  1027cd:	50                   	push   %eax
  1027ce:	e8 43 e1 ff ff       	call   100916 <printk>
  1027d3:	83 c4 10             	add    $0x10,%esp
  1027d6:	83 ec 08             	sub    $0x8,%esp
  1027d9:	6a 01                	push   $0x1
  1027db:	6a 04                	push   $0x4
  1027dd:	e8 69 ec ff ff       	call   10144b <get_partner_page_no>
  1027e2:	83 c4 10             	add    $0x10,%esp
  1027e5:	83 ec 08             	sub    $0x8,%esp
  1027e8:	50                   	push   %eax
  1027e9:	8d 83 05 02 00 00    	lea    0x205(%ebx),%eax
  1027ef:	50                   	push   %eax
  1027f0:	e8 21 e1 ff ff       	call   100916 <printk>
  1027f5:	83 c4 10             	add    $0x10,%esp
  1027f8:	90                   	nop
  1027f9:	8b 5d fc             	mov    -0x4(%ebp),%ebx
  1027fc:	c9                   	leave  
  1027fd:	c3                   	ret    

001027fe <set_int_disc>:
  1027fe:	55                   	push   %ebp
  1027ff:	89 e5                	mov    %esp,%ebp
  102801:	53                   	push   %ebx
  102802:	83 ec 08             	sub    $0x8,%esp
  102805:	e8 f6 17 00 00       	call   104000 <__x86.get_pc_thunk.ax>
  10280a:	05 f6 27 00 00       	add    $0x27f6,%eax
  10280f:	8b 4d 10             	mov    0x10(%ebp),%ecx
  102812:	8b 55 14             	mov    0x14(%ebp),%edx
  102815:	66 89 4d f8          	mov    %cx,-0x8(%ebp)
  102819:	88 55 f4             	mov    %dl,-0xc(%ebp)
  10281c:	8b 55 0c             	mov    0xc(%ebp),%edx
  10281f:	89 d3                	mov    %edx,%ebx
  102821:	c7 c2 40 74 18 00    	mov    $0x187440,%edx
  102827:	8b 4d 08             	mov    0x8(%ebp),%ecx
  10282a:	66 89 1c ca          	mov    %bx,(%edx,%ecx,8)
  10282e:	8b 55 0c             	mov    0xc(%ebp),%edx
  102831:	c1 ea 10             	shr    $0x10,%edx
  102834:	89 d3                	mov    %edx,%ebx
  102836:	c7 c2 40 74 18 00    	mov    $0x187440,%edx
  10283c:	8b 4d 08             	mov    0x8(%ebp),%ecx
  10283f:	66 89 5c ca 06       	mov    %bx,0x6(%edx,%ecx,8)
  102844:	c7 c2 40 74 18 00    	mov    $0x187440,%edx
  10284a:	8b 4d 08             	mov    0x8(%ebp),%ecx
  10284d:	0f b7 5d f8          	movzwl -0x8(%ebp),%ebx
  102851:	66 89 5c ca 02       	mov    %bx,0x2(%edx,%ecx,8)
  102856:	c7 c2 40 74 18 00    	mov    $0x187440,%edx
  10285c:	8b 4d 08             	mov    0x8(%ebp),%ecx
  10285f:	0f b6 5d f4          	movzbl -0xc(%ebp),%ebx
  102863:	88 5c ca 05          	mov    %bl,0x5(%edx,%ecx,8)
  102867:	c7 c0 40 74 18 00    	mov    $0x187440,%eax
  10286d:	8b 55 08             	mov    0x8(%ebp),%edx
  102870:	c6 44 d0 04 00       	movb   $0x0,0x4(%eax,%edx,8)
  102875:	90                   	nop
  102876:	83 c4 08             	add    $0x8,%esp
  102879:	5b                   	pop    %ebx
  10287a:	5d                   	pop    %ebp
  10287b:	c3                   	ret    

0010287c <timer_init>:
  10287c:	55                   	push   %ebp
  10287d:	89 e5                	mov    %esp,%ebp
  10287f:	53                   	push   %ebx
  102880:	83 ec 14             	sub    $0x14,%esp
  102883:	e8 7c 17 00 00       	call   104004 <__x86.get_pc_thunk.bx>
  102888:	81 c3 78 27 00 00    	add    $0x2778,%ebx
  10288e:	b8 dc 34 12 00       	mov    $0x1234dc,%eax
  102893:	ba 00 00 00 00       	mov    $0x0,%edx
  102898:	f7 75 08             	divl   0x8(%ebp)
  10289b:	89 45 f4             	mov    %eax,-0xc(%ebp)
  10289e:	83 ec 08             	sub    $0x8,%esp
  1028a1:	6a 36                	push   $0x36
  1028a3:	6a 43                	push   $0x43
  1028a5:	e8 51 df ff ff       	call   1007fb <outb>
  1028aa:	83 c4 10             	add    $0x10,%esp
  1028ad:	8b 45 f4             	mov    -0xc(%ebp),%eax
  1028b0:	88 45 f3             	mov    %al,-0xd(%ebp)
  1028b3:	8b 45 f4             	mov    -0xc(%ebp),%eax
  1028b6:	c1 e8 08             	shr    $0x8,%eax
  1028b9:	88 45 f2             	mov    %al,-0xe(%ebp)
  1028bc:	0f b6 45 f3          	movzbl -0xd(%ebp),%eax
  1028c0:	83 ec 08             	sub    $0x8,%esp
  1028c3:	50                   	push   %eax
  1028c4:	6a 40                	push   $0x40
  1028c6:	e8 30 df ff ff       	call   1007fb <outb>
  1028cb:	83 c4 10             	add    $0x10,%esp
  1028ce:	0f b6 45 f2          	movzbl -0xe(%ebp),%eax
  1028d2:	83 ec 08             	sub    $0x8,%esp
  1028d5:	50                   	push   %eax
  1028d6:	6a 40                	push   $0x40
  1028d8:	e8 1e df ff ff       	call   1007fb <outb>
  1028dd:	83 c4 10             	add    $0x10,%esp
  1028e0:	90                   	nop
  1028e1:	8b 5d fc             	mov    -0x4(%ebp),%ebx
  1028e4:	c9                   	leave  
  1028e5:	c3                   	ret    

001028e6 <registe_interrupt>:
  1028e6:	55                   	push   %ebp
  1028e7:	89 e5                	mov    %esp,%ebp
  1028e9:	e8 12 17 00 00       	call   104000 <__x86.get_pc_thunk.ax>
  1028ee:	05 12 27 00 00       	add    $0x2712,%eax
  1028f3:	c7 c0 20 70 18 00    	mov    $0x187020,%eax
  1028f9:	8b 55 08             	mov    0x8(%ebp),%edx
  1028fc:	8b 4d 0c             	mov    0xc(%ebp),%ecx
  1028ff:	89 0c 90             	mov    %ecx,(%eax,%edx,4)
  102902:	90                   	nop
  102903:	5d                   	pop    %ebp
  102904:	c3                   	ret    

00102905 <default_server_func>:
  102905:	55                   	push   %ebp
  102906:	89 e5                	mov    %esp,%ebp
  102908:	53                   	push   %ebx
  102909:	83 ec 04             	sub    $0x4,%esp
  10290c:	e8 ef 16 00 00       	call   104000 <__x86.get_pc_thunk.ax>
  102911:	05 ef 26 00 00       	add    $0x26ef,%eax
  102916:	83 ec 0c             	sub    $0xc,%esp
  102919:	8d 90 0e 02 00 00    	lea    0x20e(%eax),%edx
  10291f:	52                   	push   %edx
  102920:	89 c3                	mov    %eax,%ebx
  102922:	e8 ef df ff ff       	call   100916 <printk>
  102927:	83 c4 10             	add    $0x10,%esp
  10292a:	90                   	nop
  10292b:	8b 5d fc             	mov    -0x4(%ebp),%ebx
  10292e:	c9                   	leave  
  10292f:	c3                   	ret    

00102930 <timer_server_func>:
  102930:	55                   	push   %ebp
  102931:	89 e5                	mov    %esp,%ebp
  102933:	53                   	push   %ebx
  102934:	83 ec 04             	sub    $0x4,%esp
  102937:	e8 c4 16 00 00       	call   104000 <__x86.get_pc_thunk.ax>
  10293c:	05 c4 26 00 00       	add    $0x26c4,%eax
  102941:	c7 c2 40 7c 18 00    	mov    $0x187c40,%edx
  102947:	8b 12                	mov    (%edx),%edx
  102949:	8b 52 0c             	mov    0xc(%edx),%edx
  10294c:	85 d2                	test   %edx,%edx
  10294e:	74 24                	je     102974 <timer_server_func+0x44>
  102950:	c7 c2 40 7c 18 00    	mov    $0x187c40,%edx
  102956:	8b 12                	mov    (%edx),%edx
  102958:	8b 4a 0c             	mov    0xc(%edx),%ecx
  10295b:	83 e9 01             	sub    $0x1,%ecx
  10295e:	89 4a 0c             	mov    %ecx,0xc(%edx)
  102961:	c7 c0 40 7c 18 00    	mov    $0x187c40,%eax
  102967:	8b 00                	mov    (%eax),%eax
  102969:	8b 50 08             	mov    0x8(%eax),%edx
  10296c:	83 c2 01             	add    $0x1,%edx
  10296f:	89 50 08             	mov    %edx,0x8(%eax)
  102972:	eb 07                	jmp    10297b <timer_server_func+0x4b>
  102974:	89 c3                	mov    %eax,%ebx
  102976:	e8 36 07 00 00       	call   1030b1 <schedule>
  10297b:	90                   	nop
  10297c:	83 c4 04             	add    $0x4,%esp
  10297f:	5b                   	pop    %ebx
  102980:	5d                   	pop    %ebp
  102981:	c3                   	ret    

00102982 <idt_init>:
  102982:	55                   	push   %ebp
  102983:	89 e5                	mov    %esp,%ebp
  102985:	53                   	push   %ebx
  102986:	83 ec 04             	sub    $0x4,%esp
  102989:	e8 76 16 00 00       	call   104004 <__x86.get_pc_thunk.bx>
  10298e:	81 c3 72 26 00 00    	add    $0x2672,%ebx
  102994:	e8 e6 e8 ff ff       	call   10127f <_8259A_init>
  102999:	0f b6 83 20 f0 ff ff 	movzbl -0xfe0(%ebx),%eax
  1029a0:	0f b6 d0             	movzbl %al,%edx
  1029a3:	0f b7 83 22 f0 ff ff 	movzwl -0xfde(%ebx),%eax
  1029aa:	0f b7 c0             	movzwl %ax,%eax
  1029ad:	c7 c1 bf 01 10 00    	mov    $0x1001bf,%ecx
  1029b3:	52                   	push   %edx
  1029b4:	50                   	push   %eax
  1029b5:	51                   	push   %ecx
  1029b6:	6a 00                	push   $0x0
  1029b8:	e8 41 fe ff ff       	call   1027fe <set_int_disc>
  1029bd:	83 c4 10             	add    $0x10,%esp
  1029c0:	0f b6 83 20 f0 ff ff 	movzbl -0xfe0(%ebx),%eax
  1029c7:	0f b6 d0             	movzbl %al,%edx
  1029ca:	0f b7 83 22 f0 ff ff 	movzwl -0xfde(%ebx),%eax
  1029d1:	0f b7 c0             	movzwl %ax,%eax
  1029d4:	c7 c1 c7 01 10 00    	mov    $0x1001c7,%ecx
  1029da:	52                   	push   %edx
  1029db:	50                   	push   %eax
  1029dc:	51                   	push   %ecx
  1029dd:	6a 01                	push   $0x1
  1029df:	e8 1a fe ff ff       	call   1027fe <set_int_disc>
  1029e4:	83 c4 10             	add    $0x10,%esp
  1029e7:	0f b6 83 20 f0 ff ff 	movzbl -0xfe0(%ebx),%eax
  1029ee:	0f b6 d0             	movzbl %al,%edx
  1029f1:	0f b7 83 22 f0 ff ff 	movzwl -0xfde(%ebx),%eax
  1029f8:	0f b7 c0             	movzwl %ax,%eax
  1029fb:	c7 c1 cf 01 10 00    	mov    $0x1001cf,%ecx
  102a01:	52                   	push   %edx
  102a02:	50                   	push   %eax
  102a03:	51                   	push   %ecx
  102a04:	6a 02                	push   $0x2
  102a06:	e8 f3 fd ff ff       	call   1027fe <set_int_disc>
  102a0b:	83 c4 10             	add    $0x10,%esp
  102a0e:	0f b6 83 20 f0 ff ff 	movzbl -0xfe0(%ebx),%eax
  102a15:	0f b6 d0             	movzbl %al,%edx
  102a18:	0f b7 83 22 f0 ff ff 	movzwl -0xfde(%ebx),%eax
  102a1f:	0f b7 c0             	movzwl %ax,%eax
  102a22:	c7 c1 d7 01 10 00    	mov    $0x1001d7,%ecx
  102a28:	52                   	push   %edx
  102a29:	50                   	push   %eax
  102a2a:	51                   	push   %ecx
  102a2b:	6a 03                	push   $0x3
  102a2d:	e8 cc fd ff ff       	call   1027fe <set_int_disc>
  102a32:	83 c4 10             	add    $0x10,%esp
  102a35:	0f b6 83 20 f0 ff ff 	movzbl -0xfe0(%ebx),%eax
  102a3c:	0f b6 d0             	movzbl %al,%edx
  102a3f:	0f b7 83 22 f0 ff ff 	movzwl -0xfde(%ebx),%eax
  102a46:	0f b7 c0             	movzwl %ax,%eax
  102a49:	c7 c1 df 01 10 00    	mov    $0x1001df,%ecx
  102a4f:	52                   	push   %edx
  102a50:	50                   	push   %eax
  102a51:	51                   	push   %ecx
  102a52:	6a 04                	push   $0x4
  102a54:	e8 a5 fd ff ff       	call   1027fe <set_int_disc>
  102a59:	83 c4 10             	add    $0x10,%esp
  102a5c:	0f b6 83 20 f0 ff ff 	movzbl -0xfe0(%ebx),%eax
  102a63:	0f b6 d0             	movzbl %al,%edx
  102a66:	0f b7 83 22 f0 ff ff 	movzwl -0xfde(%ebx),%eax
  102a6d:	0f b7 c0             	movzwl %ax,%eax
  102a70:	c7 c1 e7 01 10 00    	mov    $0x1001e7,%ecx
  102a76:	52                   	push   %edx
  102a77:	50                   	push   %eax
  102a78:	51                   	push   %ecx
  102a79:	6a 05                	push   $0x5
  102a7b:	e8 7e fd ff ff       	call   1027fe <set_int_disc>
  102a80:	83 c4 10             	add    $0x10,%esp
  102a83:	0f b6 83 20 f0 ff ff 	movzbl -0xfe0(%ebx),%eax
  102a8a:	0f b6 d0             	movzbl %al,%edx
  102a8d:	0f b7 83 22 f0 ff ff 	movzwl -0xfde(%ebx),%eax
  102a94:	0f b7 c0             	movzwl %ax,%eax
  102a97:	c7 c1 ef 01 10 00    	mov    $0x1001ef,%ecx
  102a9d:	52                   	push   %edx
  102a9e:	50                   	push   %eax
  102a9f:	51                   	push   %ecx
  102aa0:	6a 06                	push   $0x6
  102aa2:	e8 57 fd ff ff       	call   1027fe <set_int_disc>
  102aa7:	83 c4 10             	add    $0x10,%esp
  102aaa:	0f b6 83 20 f0 ff ff 	movzbl -0xfe0(%ebx),%eax
  102ab1:	0f b6 d0             	movzbl %al,%edx
  102ab4:	0f b7 83 22 f0 ff ff 	movzwl -0xfde(%ebx),%eax
  102abb:	0f b7 c0             	movzwl %ax,%eax
  102abe:	c7 c1 fa 01 10 00    	mov    $0x1001fa,%ecx
  102ac4:	52                   	push   %edx
  102ac5:	50                   	push   %eax
  102ac6:	51                   	push   %ecx
  102ac7:	6a 07                	push   $0x7
  102ac9:	e8 30 fd ff ff       	call   1027fe <set_int_disc>
  102ace:	83 c4 10             	add    $0x10,%esp
  102ad1:	0f b6 83 20 f0 ff ff 	movzbl -0xfe0(%ebx),%eax
  102ad8:	0f b6 d0             	movzbl %al,%edx
  102adb:	0f b7 83 22 f0 ff ff 	movzwl -0xfde(%ebx),%eax
  102ae2:	0f b7 c0             	movzwl %ax,%eax
  102ae5:	c7 c1 05 02 10 00    	mov    $0x100205,%ecx
  102aeb:	52                   	push   %edx
  102aec:	50                   	push   %eax
  102aed:	51                   	push   %ecx
  102aee:	6a 08                	push   $0x8
  102af0:	e8 09 fd ff ff       	call   1027fe <set_int_disc>
  102af5:	83 c4 10             	add    $0x10,%esp
  102af8:	0f b6 83 20 f0 ff ff 	movzbl -0xfe0(%ebx),%eax
  102aff:	0f b6 d0             	movzbl %al,%edx
  102b02:	0f b7 83 22 f0 ff ff 	movzwl -0xfde(%ebx),%eax
  102b09:	0f b7 c0             	movzwl %ax,%eax
  102b0c:	c7 c1 0f 02 10 00    	mov    $0x10020f,%ecx
  102b12:	52                   	push   %edx
  102b13:	50                   	push   %eax
  102b14:	51                   	push   %ecx
  102b15:	6a 09                	push   $0x9
  102b17:	e8 e2 fc ff ff       	call   1027fe <set_int_disc>
  102b1c:	83 c4 10             	add    $0x10,%esp
  102b1f:	0f b6 83 20 f0 ff ff 	movzbl -0xfe0(%ebx),%eax
  102b26:	0f b6 d0             	movzbl %al,%edx
  102b29:	0f b7 83 22 f0 ff ff 	movzwl -0xfde(%ebx),%eax
  102b30:	0f b7 c0             	movzwl %ax,%eax
  102b33:	c7 c1 1a 02 10 00    	mov    $0x10021a,%ecx
  102b39:	52                   	push   %edx
  102b3a:	50                   	push   %eax
  102b3b:	51                   	push   %ecx
  102b3c:	6a 0a                	push   $0xa
  102b3e:	e8 bb fc ff ff       	call   1027fe <set_int_disc>
  102b43:	83 c4 10             	add    $0x10,%esp
  102b46:	0f b6 83 20 f0 ff ff 	movzbl -0xfe0(%ebx),%eax
  102b4d:	0f b6 d0             	movzbl %al,%edx
  102b50:	0f b7 83 22 f0 ff ff 	movzwl -0xfde(%ebx),%eax
  102b57:	0f b7 c0             	movzwl %ax,%eax
  102b5a:	c7 c1 24 02 10 00    	mov    $0x100224,%ecx
  102b60:	52                   	push   %edx
  102b61:	50                   	push   %eax
  102b62:	51                   	push   %ecx
  102b63:	6a 0b                	push   $0xb
  102b65:	e8 94 fc ff ff       	call   1027fe <set_int_disc>
  102b6a:	83 c4 10             	add    $0x10,%esp
  102b6d:	0f b6 83 20 f0 ff ff 	movzbl -0xfe0(%ebx),%eax
  102b74:	0f b6 d0             	movzbl %al,%edx
  102b77:	0f b7 83 22 f0 ff ff 	movzwl -0xfde(%ebx),%eax
  102b7e:	0f b7 c0             	movzwl %ax,%eax
  102b81:	c7 c1 2e 02 10 00    	mov    $0x10022e,%ecx
  102b87:	52                   	push   %edx
  102b88:	50                   	push   %eax
  102b89:	51                   	push   %ecx
  102b8a:	6a 0c                	push   $0xc
  102b8c:	e8 6d fc ff ff       	call   1027fe <set_int_disc>
  102b91:	83 c4 10             	add    $0x10,%esp
  102b94:	0f b6 83 20 f0 ff ff 	movzbl -0xfe0(%ebx),%eax
  102b9b:	0f b6 d0             	movzbl %al,%edx
  102b9e:	0f b7 83 22 f0 ff ff 	movzwl -0xfde(%ebx),%eax
  102ba5:	0f b7 c0             	movzwl %ax,%eax
  102ba8:	c7 c1 38 02 10 00    	mov    $0x100238,%ecx
  102bae:	52                   	push   %edx
  102baf:	50                   	push   %eax
  102bb0:	51                   	push   %ecx
  102bb1:	6a 0d                	push   $0xd
  102bb3:	e8 46 fc ff ff       	call   1027fe <set_int_disc>
  102bb8:	83 c4 10             	add    $0x10,%esp
  102bbb:	0f b6 83 20 f0 ff ff 	movzbl -0xfe0(%ebx),%eax
  102bc2:	0f b6 d0             	movzbl %al,%edx
  102bc5:	0f b7 83 22 f0 ff ff 	movzwl -0xfde(%ebx),%eax
  102bcc:	0f b7 c0             	movzwl %ax,%eax
  102bcf:	c7 c1 42 02 10 00    	mov    $0x100242,%ecx
  102bd5:	52                   	push   %edx
  102bd6:	50                   	push   %eax
  102bd7:	51                   	push   %ecx
  102bd8:	6a 0e                	push   $0xe
  102bda:	e8 1f fc ff ff       	call   1027fe <set_int_disc>
  102bdf:	83 c4 10             	add    $0x10,%esp
  102be2:	0f b6 83 20 f0 ff ff 	movzbl -0xfe0(%ebx),%eax
  102be9:	0f b6 d0             	movzbl %al,%edx
  102bec:	0f b7 83 22 f0 ff ff 	movzwl -0xfde(%ebx),%eax
  102bf3:	0f b7 c0             	movzwl %ax,%eax
  102bf6:	c7 c1 4c 02 10 00    	mov    $0x10024c,%ecx
  102bfc:	52                   	push   %edx
  102bfd:	50                   	push   %eax
  102bfe:	51                   	push   %ecx
  102bff:	6a 0f                	push   $0xf
  102c01:	e8 f8 fb ff ff       	call   1027fe <set_int_disc>
  102c06:	83 c4 10             	add    $0x10,%esp
  102c09:	0f b6 83 20 f0 ff ff 	movzbl -0xfe0(%ebx),%eax
  102c10:	0f b6 d0             	movzbl %al,%edx
  102c13:	0f b7 83 22 f0 ff ff 	movzwl -0xfde(%ebx),%eax
  102c1a:	0f b7 c0             	movzwl %ax,%eax
  102c1d:	c7 c1 57 02 10 00    	mov    $0x100257,%ecx
  102c23:	52                   	push   %edx
  102c24:	50                   	push   %eax
  102c25:	51                   	push   %ecx
  102c26:	6a 10                	push   $0x10
  102c28:	e8 d1 fb ff ff       	call   1027fe <set_int_disc>
  102c2d:	83 c4 10             	add    $0x10,%esp
  102c30:	0f b6 83 20 f0 ff ff 	movzbl -0xfe0(%ebx),%eax
  102c37:	0f b6 d0             	movzbl %al,%edx
  102c3a:	0f b7 83 22 f0 ff ff 	movzwl -0xfde(%ebx),%eax
  102c41:	0f b7 c0             	movzwl %ax,%eax
  102c44:	c7 c1 62 02 10 00    	mov    $0x100262,%ecx
  102c4a:	52                   	push   %edx
  102c4b:	50                   	push   %eax
  102c4c:	51                   	push   %ecx
  102c4d:	6a 11                	push   $0x11
  102c4f:	e8 aa fb ff ff       	call   1027fe <set_int_disc>
  102c54:	83 c4 10             	add    $0x10,%esp
  102c57:	0f b6 83 20 f0 ff ff 	movzbl -0xfe0(%ebx),%eax
  102c5e:	0f b6 d0             	movzbl %al,%edx
  102c61:	0f b7 83 22 f0 ff ff 	movzwl -0xfde(%ebx),%eax
  102c68:	0f b7 c0             	movzwl %ax,%eax
  102c6b:	c7 c1 6c 02 10 00    	mov    $0x10026c,%ecx
  102c71:	52                   	push   %edx
  102c72:	50                   	push   %eax
  102c73:	51                   	push   %ecx
  102c74:	6a 12                	push   $0x12
  102c76:	e8 83 fb ff ff       	call   1027fe <set_int_disc>
  102c7b:	83 c4 10             	add    $0x10,%esp
  102c7e:	0f b6 83 20 f0 ff ff 	movzbl -0xfe0(%ebx),%eax
  102c85:	0f b6 d0             	movzbl %al,%edx
  102c88:	0f b7 83 22 f0 ff ff 	movzwl -0xfde(%ebx),%eax
  102c8f:	0f b7 c0             	movzwl %ax,%eax
  102c92:	c7 c1 77 02 10 00    	mov    $0x100277,%ecx
  102c98:	52                   	push   %edx
  102c99:	50                   	push   %eax
  102c9a:	51                   	push   %ecx
  102c9b:	6a 13                	push   $0x13
  102c9d:	e8 5c fb ff ff       	call   1027fe <set_int_disc>
  102ca2:	83 c4 10             	add    $0x10,%esp
  102ca5:	0f b6 83 20 f0 ff ff 	movzbl -0xfe0(%ebx),%eax
  102cac:	0f b6 d0             	movzbl %al,%edx
  102caf:	0f b7 83 22 f0 ff ff 	movzwl -0xfde(%ebx),%eax
  102cb6:	0f b7 c0             	movzwl %ax,%eax
  102cb9:	c7 c1 82 02 10 00    	mov    $0x100282,%ecx
  102cbf:	52                   	push   %edx
  102cc0:	50                   	push   %eax
  102cc1:	51                   	push   %ecx
  102cc2:	6a 14                	push   $0x14
  102cc4:	e8 35 fb ff ff       	call   1027fe <set_int_disc>
  102cc9:	83 c4 10             	add    $0x10,%esp
  102ccc:	0f b6 83 20 f0 ff ff 	movzbl -0xfe0(%ebx),%eax
  102cd3:	0f b6 d0             	movzbl %al,%edx
  102cd6:	0f b7 83 22 f0 ff ff 	movzwl -0xfde(%ebx),%eax
  102cdd:	0f b7 c0             	movzwl %ax,%eax
  102ce0:	c7 c1 8d 02 10 00    	mov    $0x10028d,%ecx
  102ce6:	52                   	push   %edx
  102ce7:	50                   	push   %eax
  102ce8:	51                   	push   %ecx
  102ce9:	6a 15                	push   $0x15
  102ceb:	e8 0e fb ff ff       	call   1027fe <set_int_disc>
  102cf0:	83 c4 10             	add    $0x10,%esp
  102cf3:	0f b6 83 20 f0 ff ff 	movzbl -0xfe0(%ebx),%eax
  102cfa:	0f b6 d0             	movzbl %al,%edx
  102cfd:	0f b7 83 22 f0 ff ff 	movzwl -0xfde(%ebx),%eax
  102d04:	0f b7 c0             	movzwl %ax,%eax
  102d07:	c7 c1 98 02 10 00    	mov    $0x100298,%ecx
  102d0d:	52                   	push   %edx
  102d0e:	50                   	push   %eax
  102d0f:	51                   	push   %ecx
  102d10:	6a 16                	push   $0x16
  102d12:	e8 e7 fa ff ff       	call   1027fe <set_int_disc>
  102d17:	83 c4 10             	add    $0x10,%esp
  102d1a:	0f b6 83 20 f0 ff ff 	movzbl -0xfe0(%ebx),%eax
  102d21:	0f b6 d0             	movzbl %al,%edx
  102d24:	0f b7 83 22 f0 ff ff 	movzwl -0xfde(%ebx),%eax
  102d2b:	0f b7 c0             	movzwl %ax,%eax
  102d2e:	c7 c1 a3 02 10 00    	mov    $0x1002a3,%ecx
  102d34:	52                   	push   %edx
  102d35:	50                   	push   %eax
  102d36:	51                   	push   %ecx
  102d37:	6a 17                	push   $0x17
  102d39:	e8 c0 fa ff ff       	call   1027fe <set_int_disc>
  102d3e:	83 c4 10             	add    $0x10,%esp
  102d41:	0f b6 83 20 f0 ff ff 	movzbl -0xfe0(%ebx),%eax
  102d48:	0f b6 d0             	movzbl %al,%edx
  102d4b:	0f b7 83 22 f0 ff ff 	movzwl -0xfde(%ebx),%eax
  102d52:	0f b7 c0             	movzwl %ax,%eax
  102d55:	c7 c1 ae 02 10 00    	mov    $0x1002ae,%ecx
  102d5b:	52                   	push   %edx
  102d5c:	50                   	push   %eax
  102d5d:	51                   	push   %ecx
  102d5e:	6a 18                	push   $0x18
  102d60:	e8 99 fa ff ff       	call   1027fe <set_int_disc>
  102d65:	83 c4 10             	add    $0x10,%esp
  102d68:	0f b6 83 20 f0 ff ff 	movzbl -0xfe0(%ebx),%eax
  102d6f:	0f b6 d0             	movzbl %al,%edx
  102d72:	0f b7 83 22 f0 ff ff 	movzwl -0xfde(%ebx),%eax
  102d79:	0f b7 c0             	movzwl %ax,%eax
  102d7c:	c7 c1 b9 02 10 00    	mov    $0x1002b9,%ecx
  102d82:	52                   	push   %edx
  102d83:	50                   	push   %eax
  102d84:	51                   	push   %ecx
  102d85:	6a 19                	push   $0x19
  102d87:	e8 72 fa ff ff       	call   1027fe <set_int_disc>
  102d8c:	83 c4 10             	add    $0x10,%esp
  102d8f:	0f b6 83 20 f0 ff ff 	movzbl -0xfe0(%ebx),%eax
  102d96:	0f b6 d0             	movzbl %al,%edx
  102d99:	0f b7 83 22 f0 ff ff 	movzwl -0xfde(%ebx),%eax
  102da0:	0f b7 c0             	movzwl %ax,%eax
  102da3:	c7 c1 c4 02 10 00    	mov    $0x1002c4,%ecx
  102da9:	52                   	push   %edx
  102daa:	50                   	push   %eax
  102dab:	51                   	push   %ecx
  102dac:	6a 1a                	push   $0x1a
  102dae:	e8 4b fa ff ff       	call   1027fe <set_int_disc>
  102db3:	83 c4 10             	add    $0x10,%esp
  102db6:	0f b6 83 20 f0 ff ff 	movzbl -0xfe0(%ebx),%eax
  102dbd:	0f b6 d0             	movzbl %al,%edx
  102dc0:	0f b7 83 22 f0 ff ff 	movzwl -0xfde(%ebx),%eax
  102dc7:	0f b7 c0             	movzwl %ax,%eax
  102dca:	c7 c1 cf 02 10 00    	mov    $0x1002cf,%ecx
  102dd0:	52                   	push   %edx
  102dd1:	50                   	push   %eax
  102dd2:	51                   	push   %ecx
  102dd3:	6a 1b                	push   $0x1b
  102dd5:	e8 24 fa ff ff       	call   1027fe <set_int_disc>
  102dda:	83 c4 10             	add    $0x10,%esp
  102ddd:	0f b6 83 20 f0 ff ff 	movzbl -0xfe0(%ebx),%eax
  102de4:	0f b6 d0             	movzbl %al,%edx
  102de7:	0f b7 83 22 f0 ff ff 	movzwl -0xfde(%ebx),%eax
  102dee:	0f b7 c0             	movzwl %ax,%eax
  102df1:	c7 c1 da 02 10 00    	mov    $0x1002da,%ecx
  102df7:	52                   	push   %edx
  102df8:	50                   	push   %eax
  102df9:	51                   	push   %ecx
  102dfa:	6a 1c                	push   $0x1c
  102dfc:	e8 fd f9 ff ff       	call   1027fe <set_int_disc>
  102e01:	83 c4 10             	add    $0x10,%esp
  102e04:	0f b6 83 20 f0 ff ff 	movzbl -0xfe0(%ebx),%eax
  102e0b:	0f b6 d0             	movzbl %al,%edx
  102e0e:	0f b7 83 22 f0 ff ff 	movzwl -0xfde(%ebx),%eax
  102e15:	0f b7 c0             	movzwl %ax,%eax
  102e18:	c7 c1 e5 02 10 00    	mov    $0x1002e5,%ecx
  102e1e:	52                   	push   %edx
  102e1f:	50                   	push   %eax
  102e20:	51                   	push   %ecx
  102e21:	6a 1d                	push   $0x1d
  102e23:	e8 d6 f9 ff ff       	call   1027fe <set_int_disc>
  102e28:	83 c4 10             	add    $0x10,%esp
  102e2b:	0f b6 83 20 f0 ff ff 	movzbl -0xfe0(%ebx),%eax
  102e32:	0f b6 d0             	movzbl %al,%edx
  102e35:	0f b7 83 22 f0 ff ff 	movzwl -0xfde(%ebx),%eax
  102e3c:	0f b7 c0             	movzwl %ax,%eax
  102e3f:	c7 c1 f0 02 10 00    	mov    $0x1002f0,%ecx
  102e45:	52                   	push   %edx
  102e46:	50                   	push   %eax
  102e47:	51                   	push   %ecx
  102e48:	6a 1e                	push   $0x1e
  102e4a:	e8 af f9 ff ff       	call   1027fe <set_int_disc>
  102e4f:	83 c4 10             	add    $0x10,%esp
  102e52:	0f b6 83 20 f0 ff ff 	movzbl -0xfe0(%ebx),%eax
  102e59:	0f b6 d0             	movzbl %al,%edx
  102e5c:	0f b7 83 22 f0 ff ff 	movzwl -0xfde(%ebx),%eax
  102e63:	0f b7 c0             	movzwl %ax,%eax
  102e66:	c7 c1 fb 02 10 00    	mov    $0x1002fb,%ecx
  102e6c:	52                   	push   %edx
  102e6d:	50                   	push   %eax
  102e6e:	51                   	push   %ecx
  102e6f:	6a 1f                	push   $0x1f
  102e71:	e8 88 f9 ff ff       	call   1027fe <set_int_disc>
  102e76:	83 c4 10             	add    $0x10,%esp
  102e79:	0f b6 83 20 f0 ff ff 	movzbl -0xfe0(%ebx),%eax
  102e80:	0f b6 d0             	movzbl %al,%edx
  102e83:	0f b7 83 22 f0 ff ff 	movzwl -0xfde(%ebx),%eax
  102e8a:	0f b7 c0             	movzwl %ax,%eax
  102e8d:	c7 c1 06 03 10 00    	mov    $0x100306,%ecx
  102e93:	52                   	push   %edx
  102e94:	50                   	push   %eax
  102e95:	51                   	push   %ecx
  102e96:	6a 20                	push   $0x20
  102e98:	e8 61 f9 ff ff       	call   1027fe <set_int_disc>
  102e9d:	83 c4 10             	add    $0x10,%esp
  102ea0:	83 ec 08             	sub    $0x8,%esp
  102ea3:	8d 83 30 d9 ff ff    	lea    -0x26d0(%ebx),%eax
  102ea9:	50                   	push   %eax
  102eaa:	6a 20                	push   $0x20
  102eac:	e8 35 fa ff ff       	call   1028e6 <registe_interrupt>
  102eb1:	83 c4 10             	add    $0x10,%esp
  102eb4:	c7 c0 20 74 18 00    	mov    $0x187420,%eax
  102eba:	66 c7 00 00 08       	movw   $0x800,(%eax)
  102ebf:	c7 c0 40 74 18 00    	mov    $0x187440,%eax
  102ec5:	89 c2                	mov    %eax,%edx
  102ec7:	c7 c0 20 74 18 00    	mov    $0x187420,%eax
  102ecd:	89 50 02             	mov    %edx,0x2(%eax)
  102ed0:	83 ec 0c             	sub    $0xc,%esp
  102ed3:	68 e8 03 00 00       	push   $0x3e8
  102ed8:	e8 9f f9 ff ff       	call   10287c <timer_init>
  102edd:	83 c4 10             	add    $0x10,%esp
  102ee0:	c7 c0 20 74 18 00    	mov    $0x187420,%eax
  102ee6:	83 ec 0c             	sub    $0xc,%esp
  102ee9:	50                   	push   %eax
  102eea:	e8 22 d4 ff ff       	call   100311 <load_idt>
  102eef:	83 c4 10             	add    $0x10,%esp
  102ef2:	90                   	nop
  102ef3:	8b 5d fc             	mov    -0x4(%ebp),%ebx
  102ef6:	c9                   	leave  
  102ef7:	c3                   	ret    

00102ef8 <int_func_route>:
  102ef8:	55                   	push   %ebp
  102ef9:	89 e5                	mov    %esp,%ebp
  102efb:	83 ec 08             	sub    $0x8,%esp
  102efe:	e8 fd 10 00 00       	call   104000 <__x86.get_pc_thunk.ax>
  102f03:	05 fd 20 00 00       	add    $0x20fd,%eax
  102f08:	c7 c0 20 70 18 00    	mov    $0x187020,%eax
  102f0e:	8b 55 08             	mov    0x8(%ebp),%edx
  102f11:	8b 04 90             	mov    (%eax,%edx,4),%eax
  102f14:	83 ec 0c             	sub    $0xc,%esp
  102f17:	ff 75 0c             	pushl  0xc(%ebp)
  102f1a:	ff d0                	call   *%eax
  102f1c:	83 c4 10             	add    $0x10,%esp
  102f1f:	90                   	nop
  102f20:	c9                   	leave  
  102f21:	c3                   	ret    

00102f22 <threads_init>:
  102f22:	55                   	push   %ebp
  102f23:	89 e5                	mov    %esp,%ebp
  102f25:	83 ec 10             	sub    $0x10,%esp
  102f28:	e8 d3 10 00 00       	call   104000 <__x86.get_pc_thunk.ax>
  102f2d:	05 d3 20 00 00       	add    $0x20d3,%eax
  102f32:	c7 c2 60 7c 18 00    	mov    $0x187c60,%edx
  102f38:	89 55 fc             	mov    %edx,-0x4(%ebp)
  102f3b:	8b 55 fc             	mov    -0x4(%ebp),%edx
  102f3e:	c7 42 14 00 00 00 00 	movl   $0x0,0x14(%edx)
  102f45:	8b 55 fc             	mov    -0x4(%ebp),%edx
  102f48:	c7 42 08 00 00 00 00 	movl   $0x0,0x8(%edx)
  102f4f:	8b 55 fc             	mov    -0x4(%ebp),%edx
  102f52:	c7 42 0c 02 00 00 00 	movl   $0x2,0xc(%edx)
  102f59:	8b 55 fc             	mov    -0x4(%ebp),%edx
  102f5c:	c7 42 04 00 00 00 00 	movl   $0x0,0x4(%edx)
  102f63:	8b 55 fc             	mov    -0x4(%ebp),%edx
  102f66:	c7 42 18 00 00 00 00 	movl   $0x0,0x18(%edx)
  102f6d:	8b 55 fc             	mov    -0x4(%ebp),%edx
  102f70:	c7 42 1c 00 00 00 00 	movl   $0x0,0x1c(%edx)
  102f77:	8b 55 fc             	mov    -0x4(%ebp),%edx
  102f7a:	8b 4d fc             	mov    -0x4(%ebp),%ecx
  102f7d:	89 4a 10             	mov    %ecx,0x10(%edx)
  102f80:	8b 55 fc             	mov    -0x4(%ebp),%edx
  102f83:	c7 02 00 00 00 00    	movl   $0x0,(%edx)
  102f89:	c7 c0 40 7c 18 00    	mov    $0x187c40,%eax
  102f8f:	8b 55 fc             	mov    -0x4(%ebp),%edx
  102f92:	89 10                	mov    %edx,(%eax)
  102f94:	90                   	nop
  102f95:	c9                   	leave  
  102f96:	c3                   	ret    

00102f97 <create_TCB>:
  102f97:	55                   	push   %ebp
  102f98:	89 e5                	mov    %esp,%ebp
  102f9a:	83 ec 10             	sub    $0x10,%esp
  102f9d:	e8 5e 10 00 00       	call   104000 <__x86.get_pc_thunk.ax>
  102fa2:	05 5e 20 00 00       	add    $0x205e,%eax
  102fa7:	8b 45 0c             	mov    0xc(%ebp),%eax
  102faa:	89 45 fc             	mov    %eax,-0x4(%ebp)
  102fad:	8b 45 fc             	mov    -0x4(%ebp),%eax
  102fb0:	8b 55 08             	mov    0x8(%ebp),%edx
  102fb3:	89 50 14             	mov    %edx,0x14(%eax)
  102fb6:	8b 45 fc             	mov    -0x4(%ebp),%eax
  102fb9:	c7 40 08 00 00 00 00 	movl   $0x0,0x8(%eax)
  102fc0:	8b 45 fc             	mov    -0x4(%ebp),%eax
  102fc3:	c7 40 0c 02 00 00 00 	movl   $0x2,0xc(%eax)
  102fca:	8b 45 fc             	mov    -0x4(%ebp),%eax
  102fcd:	c7 40 04 00 00 00 00 	movl   $0x0,0x4(%eax)
  102fd4:	8b 45 fc             	mov    -0x4(%ebp),%eax
  102fd7:	8b 55 10             	mov    0x10(%ebp),%edx
  102fda:	89 50 18             	mov    %edx,0x18(%eax)
  102fdd:	8b 45 fc             	mov    -0x4(%ebp),%eax
  102fe0:	8b 55 0c             	mov    0xc(%ebp),%edx
  102fe3:	89 50 1c             	mov    %edx,0x1c(%eax)
  102fe6:	8b 45 10             	mov    0x10(%ebp),%eax
  102fe9:	c1 e0 0c             	shl    $0xc,%eax
  102fec:	89 c2                	mov    %eax,%edx
  102fee:	8b 45 0c             	mov    0xc(%ebp),%eax
  102ff1:	01 d0                	add    %edx,%eax
  102ff3:	89 c2                	mov    %eax,%edx
  102ff5:	8b 45 fc             	mov    -0x4(%ebp),%eax
  102ff8:	89 10                	mov    %edx,(%eax)
  102ffa:	8b 45 0c             	mov    0xc(%ebp),%eax
  102ffd:	c9                   	leave  
  102ffe:	c3                   	ret    

00102fff <create_thread>:
  102fff:	55                   	push   %ebp
  103000:	89 e5                	mov    %esp,%ebp
  103002:	53                   	push   %ebx
  103003:	83 ec 10             	sub    $0x10,%esp
  103006:	e8 f9 0f 00 00       	call   104004 <__x86.get_pc_thunk.bx>
  10300b:	81 c3 f5 1f 00 00    	add    $0x1ff5,%ebx
  103011:	fa                   	cli    
  103012:	ff 75 18             	pushl  0x18(%ebp)
  103015:	ff 75 14             	pushl  0x14(%ebp)
  103018:	ff 75 08             	pushl  0x8(%ebp)
  10301b:	e8 77 ff ff ff       	call   102f97 <create_TCB>
  103020:	83 c4 0c             	add    $0xc,%esp
  103023:	89 45 f8             	mov    %eax,-0x8(%ebp)
  103026:	c7 c0 40 7c 18 00    	mov    $0x187c40,%eax
  10302c:	8b 00                	mov    (%eax),%eax
  10302e:	8b 40 10             	mov    0x10(%eax),%eax
  103031:	89 45 f4             	mov    %eax,-0xc(%ebp)
  103034:	c7 c0 40 7c 18 00    	mov    $0x187c40,%eax
  10303a:	8b 00                	mov    (%eax),%eax
  10303c:	8b 55 f8             	mov    -0x8(%ebp),%edx
  10303f:	89 50 10             	mov    %edx,0x10(%eax)
  103042:	8b 45 f8             	mov    -0x8(%ebp),%eax
  103045:	8b 55 f4             	mov    -0xc(%ebp),%edx
  103048:	89 50 10             	mov    %edx,0x10(%eax)
  10304b:	8b 45 f8             	mov    -0x8(%ebp),%eax
  10304e:	8b 00                	mov    (%eax),%eax
  103050:	8d 50 fc             	lea    -0x4(%eax),%edx
  103053:	8b 45 f8             	mov    -0x8(%ebp),%eax
  103056:	89 10                	mov    %edx,(%eax)
  103058:	8b 45 f8             	mov    -0x8(%ebp),%eax
  10305b:	8b 00                	mov    (%eax),%eax
  10305d:	8b 55 10             	mov    0x10(%ebp),%edx
  103060:	89 10                	mov    %edx,(%eax)
  103062:	8b 45 f8             	mov    -0x8(%ebp),%eax
  103065:	8b 00                	mov    (%eax),%eax
  103067:	8d 50 fc             	lea    -0x4(%eax),%edx
  10306a:	8b 45 f8             	mov    -0x8(%ebp),%eax
  10306d:	89 10                	mov    %edx,(%eax)
  10306f:	8b 45 f8             	mov    -0x8(%ebp),%eax
  103072:	8b 00                	mov    (%eax),%eax
  103074:	8d 93 b2 e1 ff ff    	lea    -0x1e4e(%ebx),%edx
  10307a:	89 10                	mov    %edx,(%eax)
  10307c:	8b 45 f8             	mov    -0x8(%ebp),%eax
  10307f:	8b 00                	mov    (%eax),%eax
  103081:	8d 50 fc             	lea    -0x4(%eax),%edx
  103084:	8b 45 f8             	mov    -0x8(%ebp),%eax
  103087:	89 10                	mov    %edx,(%eax)
  103089:	8b 45 f8             	mov    -0x8(%ebp),%eax
  10308c:	8b 00                	mov    (%eax),%eax
  10308e:	8b 55 0c             	mov    0xc(%ebp),%edx
  103091:	89 10                	mov    %edx,(%eax)
  103093:	8b 45 f8             	mov    -0x8(%ebp),%eax
  103096:	c7 40 38 00 02 00 00 	movl   $0x200,0x38(%eax)
  10309d:	8b 45 f8             	mov    -0x8(%ebp),%eax
  1030a0:	8b 00                	mov    (%eax),%eax
  1030a2:	89 c2                	mov    %eax,%edx
  1030a4:	8b 45 f8             	mov    -0x8(%ebp),%eax
  1030a7:	89 50 3c             	mov    %edx,0x3c(%eax)
  1030aa:	fb                   	sti    
  1030ab:	90                   	nop
  1030ac:	8b 5d fc             	mov    -0x4(%ebp),%ebx
  1030af:	c9                   	leave  
  1030b0:	c3                   	ret    

001030b1 <schedule>:
  1030b1:	55                   	push   %ebp
  1030b2:	89 e5                	mov    %esp,%ebp
  1030b4:	53                   	push   %ebx
  1030b5:	83 ec 14             	sub    $0x14,%esp
  1030b8:	e8 47 0f 00 00       	call   104004 <__x86.get_pc_thunk.bx>
  1030bd:	81 c3 43 1f 00 00    	add    $0x1f43,%ebx
  1030c3:	c7 c0 40 7c 18 00    	mov    $0x187c40,%eax
  1030c9:	8b 00                	mov    (%eax),%eax
  1030cb:	8b 50 10             	mov    0x10(%eax),%edx
  1030ce:	c7 c0 40 7c 18 00    	mov    $0x187c40,%eax
  1030d4:	8b 00                	mov    (%eax),%eax
  1030d6:	39 c2                	cmp    %eax,%edx
  1030d8:	75 11                	jne    1030eb <schedule+0x3a>
  1030da:	c7 c0 40 7c 18 00    	mov    $0x187c40,%eax
  1030e0:	8b 00                	mov    (%eax),%eax
  1030e2:	c7 40 0c 02 00 00 00 	movl   $0x2,0xc(%eax)
  1030e9:	eb 4c                	jmp    103137 <schedule+0x86>
  1030eb:	c7 c0 40 7c 18 00    	mov    $0x187c40,%eax
  1030f1:	8b 00                	mov    (%eax),%eax
  1030f3:	89 45 f4             	mov    %eax,-0xc(%ebp)
  1030f6:	c7 c0 40 7c 18 00    	mov    $0x187c40,%eax
  1030fc:	8b 00                	mov    (%eax),%eax
  1030fe:	8b 40 10             	mov    0x10(%eax),%eax
  103101:	89 45 f0             	mov    %eax,-0x10(%ebp)
  103104:	8b 45 f0             	mov    -0x10(%ebp),%eax
  103107:	c7 40 0c 02 00 00 00 	movl   $0x2,0xc(%eax)
  10310e:	c7 c0 40 7c 18 00    	mov    $0x187c40,%eax
  103114:	8b 55 f0             	mov    -0x10(%ebp),%edx
  103117:	89 10                	mov    %edx,(%eax)
  103119:	e8 02 d2 ff ff       	call   100320 <get_esp>
  10311e:	8b 45 f0             	mov    -0x10(%ebp),%eax
  103121:	8d 50 20             	lea    0x20(%eax),%edx
  103124:	8b 45 f4             	mov    -0xc(%ebp),%eax
  103127:	83 c0 20             	add    $0x20,%eax
  10312a:	83 ec 08             	sub    $0x8,%esp
  10312d:	52                   	push   %edx
  10312e:	50                   	push   %eax
  10312f:	e8 f2 d1 ff ff       	call   100326 <switch_to>
  103134:	83 c4 10             	add    $0x10,%esp
  103137:	8b 5d fc             	mov    -0x4(%ebp),%ebx
  10313a:	c9                   	leave  
  10313b:	c3                   	ret    

0010313c <remove_thread>:
  10313c:	55                   	push   %ebp
  10313d:	89 e5                	mov    %esp,%ebp
  10313f:	53                   	push   %ebx
  103140:	83 ec 14             	sub    $0x14,%esp
  103143:	e8 b8 0e 00 00       	call   104000 <__x86.get_pc_thunk.ax>
  103148:	05 b8 1e 00 00       	add    $0x1eb8,%eax
  10314d:	fa                   	cli    
  10314e:	c7 c2 40 7c 18 00    	mov    $0x187c40,%edx
  103154:	8b 12                	mov    (%edx),%edx
  103156:	8b 52 14             	mov    0x14(%edx),%edx
  103159:	85 d2                	test   %edx,%edx
  10315b:	75 16                	jne    103173 <remove_thread+0x37>
  10315d:	83 ec 0c             	sub    $0xc,%esp
  103160:	8d 90 2c 02 00 00    	lea    0x22c(%eax),%edx
  103166:	52                   	push   %edx
  103167:	89 c3                	mov    %eax,%ebx
  103169:	e8 a8 d7 ff ff       	call   100916 <printk>
  10316e:	83 c4 10             	add    $0x10,%esp
  103171:	eb 39                	jmp    1031ac <remove_thread+0x70>
  103173:	c7 c2 40 7c 18 00    	mov    $0x187c40,%edx
  103179:	8b 12                	mov    (%edx),%edx
  10317b:	89 55 f4             	mov    %edx,-0xc(%ebp)
  10317e:	eb 09                	jmp    103189 <remove_thread+0x4d>
  103180:	8b 55 f4             	mov    -0xc(%ebp),%edx
  103183:	8b 52 10             	mov    0x10(%edx),%edx
  103186:	89 55 f4             	mov    %edx,-0xc(%ebp)
  103189:	8b 55 f4             	mov    -0xc(%ebp),%edx
  10318c:	8b 4a 10             	mov    0x10(%edx),%ecx
  10318f:	c7 c2 40 7c 18 00    	mov    $0x187c40,%edx
  103195:	8b 12                	mov    (%edx),%edx
  103197:	39 d1                	cmp    %edx,%ecx
  103199:	75 e5                	jne    103180 <remove_thread+0x44>
  10319b:	c7 c0 40 7c 18 00    	mov    $0x187c40,%eax
  1031a1:	8b 00                	mov    (%eax),%eax
  1031a3:	8b 50 10             	mov    0x10(%eax),%edx
  1031a6:	8b 45 f4             	mov    -0xc(%ebp),%eax
  1031a9:	89 50 10             	mov    %edx,0x10(%eax)
  1031ac:	90                   	nop
  1031ad:	8b 5d fc             	mov    -0x4(%ebp),%ebx
  1031b0:	c9                   	leave  
  1031b1:	c3                   	ret    

001031b2 <exit>:
  1031b2:	55                   	push   %ebp
  1031b3:	89 e5                	mov    %esp,%ebp
  1031b5:	53                   	push   %ebx
  1031b6:	83 ec 14             	sub    $0x14,%esp
  1031b9:	e8 46 0e 00 00       	call   104004 <__x86.get_pc_thunk.bx>
  1031be:	81 c3 42 1e 00 00    	add    $0x1e42,%ebx
  1031c4:	e8 73 ff ff ff       	call   10313c <remove_thread>
  1031c9:	c7 c0 40 7c 18 00    	mov    $0x187c40,%eax
  1031cf:	8b 00                	mov    (%eax),%eax
  1031d1:	89 45 f4             	mov    %eax,-0xc(%ebp)
  1031d4:	c7 c0 40 7c 18 00    	mov    $0x187c40,%eax
  1031da:	8b 00                	mov    (%eax),%eax
  1031dc:	8b 40 10             	mov    0x10(%eax),%eax
  1031df:	89 45 f0             	mov    %eax,-0x10(%ebp)
  1031e2:	8b 45 f0             	mov    -0x10(%ebp),%eax
  1031e5:	c7 40 0c 02 00 00 00 	movl   $0x2,0xc(%eax)
  1031ec:	c7 c0 40 7c 18 00    	mov    $0x187c40,%eax
  1031f2:	8b 00                	mov    (%eax),%eax
  1031f4:	8b 50 10             	mov    0x10(%eax),%edx
  1031f7:	c7 c0 40 7c 18 00    	mov    $0x187c40,%eax
  1031fd:	89 10                	mov    %edx,(%eax)
  1031ff:	8b 45 f0             	mov    -0x10(%ebp),%eax
  103202:	8d 50 20             	lea    0x20(%eax),%edx
  103205:	8b 45 f4             	mov    -0xc(%ebp),%eax
  103208:	83 c0 20             	add    $0x20,%eax
  10320b:	83 ec 08             	sub    $0x8,%esp
  10320e:	52                   	push   %edx
  10320f:	50                   	push   %eax
  103210:	e8 11 d1 ff ff       	call   100326 <switch_to>
  103215:	83 c4 10             	add    $0x10,%esp
  103218:	90                   	nop
  103219:	8b 5d fc             	mov    -0x4(%ebp),%ebx
  10321c:	c9                   	leave  
  10321d:	c3                   	ret    
  10321e:	66 90                	xchg   %ax,%ax
  103220:	66 90                	xchg   %ax,%ax
  103222:	66 90                	xchg   %ax,%ax
  103224:	66 90                	xchg   %ax,%ax
  103226:	66 90                	xchg   %ax,%ax
  103228:	66 90                	xchg   %ax,%ax
  10322a:	66 90                	xchg   %ax,%ax
  10322c:	66 90                	xchg   %ax,%ax
  10322e:	66 90                	xchg   %ax,%ax
  103230:	66 90                	xchg   %ax,%ax
  103232:	66 90                	xchg   %ax,%ax
  103234:	66 90                	xchg   %ax,%ax
  103236:	66 90                	xchg   %ax,%ax
  103238:	66 90                	xchg   %ax,%ax
  10323a:	66 90                	xchg   %ax,%ax
  10323c:	66 90                	xchg   %ax,%ax
  10323e:	66 90                	xchg   %ax,%ax
  103240:	66 90                	xchg   %ax,%ax
  103242:	66 90                	xchg   %ax,%ax
  103244:	66 90                	xchg   %ax,%ax
  103246:	66 90                	xchg   %ax,%ax
  103248:	66 90                	xchg   %ax,%ax
  10324a:	66 90                	xchg   %ax,%ax
  10324c:	66 90                	xchg   %ax,%ax
  10324e:	66 90                	xchg   %ax,%ax
  103250:	66 90                	xchg   %ax,%ax
  103252:	66 90                	xchg   %ax,%ax
  103254:	66 90                	xchg   %ax,%ax
  103256:	66 90                	xchg   %ax,%ax
  103258:	66 90                	xchg   %ax,%ax
  10325a:	66 90                	xchg   %ax,%ax
  10325c:	66 90                	xchg   %ax,%ax
  10325e:	66 90                	xchg   %ax,%ax
  103260:	66 90                	xchg   %ax,%ax
  103262:	66 90                	xchg   %ax,%ax
  103264:	66 90                	xchg   %ax,%ax
  103266:	66 90                	xchg   %ax,%ax
  103268:	66 90                	xchg   %ax,%ax
  10326a:	66 90                	xchg   %ax,%ax
  10326c:	66 90                	xchg   %ax,%ax
  10326e:	66 90                	xchg   %ax,%ax
  103270:	66 90                	xchg   %ax,%ax
  103272:	66 90                	xchg   %ax,%ax
  103274:	66 90                	xchg   %ax,%ax
  103276:	66 90                	xchg   %ax,%ax
  103278:	66 90                	xchg   %ax,%ax
  10327a:	66 90                	xchg   %ax,%ax
  10327c:	66 90                	xchg   %ax,%ax
  10327e:	66 90                	xchg   %ax,%ax
  103280:	66 90                	xchg   %ax,%ax
  103282:	66 90                	xchg   %ax,%ax
  103284:	66 90                	xchg   %ax,%ax
  103286:	66 90                	xchg   %ax,%ax
  103288:	66 90                	xchg   %ax,%ax
  10328a:	66 90                	xchg   %ax,%ax
  10328c:	66 90                	xchg   %ax,%ax
  10328e:	66 90                	xchg   %ax,%ax
  103290:	66 90                	xchg   %ax,%ax
  103292:	66 90                	xchg   %ax,%ax
  103294:	66 90                	xchg   %ax,%ax
  103296:	66 90                	xchg   %ax,%ax
  103298:	66 90                	xchg   %ax,%ax
  10329a:	66 90                	xchg   %ax,%ax
  10329c:	66 90                	xchg   %ax,%ax
  10329e:	66 90                	xchg   %ax,%ax
  1032a0:	66 90                	xchg   %ax,%ax
  1032a2:	66 90                	xchg   %ax,%ax
  1032a4:	66 90                	xchg   %ax,%ax
  1032a6:	66 90                	xchg   %ax,%ax
  1032a8:	66 90                	xchg   %ax,%ax
  1032aa:	66 90                	xchg   %ax,%ax
  1032ac:	66 90                	xchg   %ax,%ax
  1032ae:	66 90                	xchg   %ax,%ax
  1032b0:	66 90                	xchg   %ax,%ax
  1032b2:	66 90                	xchg   %ax,%ax
  1032b4:	66 90                	xchg   %ax,%ax
  1032b6:	66 90                	xchg   %ax,%ax
  1032b8:	66 90                	xchg   %ax,%ax
  1032ba:	66 90                	xchg   %ax,%ax
  1032bc:	66 90                	xchg   %ax,%ax
  1032be:	66 90                	xchg   %ax,%ax
  1032c0:	66 90                	xchg   %ax,%ax
  1032c2:	66 90                	xchg   %ax,%ax
  1032c4:	66 90                	xchg   %ax,%ax
  1032c6:	66 90                	xchg   %ax,%ax
  1032c8:	66 90                	xchg   %ax,%ax
  1032ca:	66 90                	xchg   %ax,%ax
  1032cc:	66 90                	xchg   %ax,%ax
  1032ce:	66 90                	xchg   %ax,%ax
  1032d0:	66 90                	xchg   %ax,%ax
  1032d2:	66 90                	xchg   %ax,%ax
  1032d4:	66 90                	xchg   %ax,%ax
  1032d6:	66 90                	xchg   %ax,%ax
  1032d8:	66 90                	xchg   %ax,%ax
  1032da:	66 90                	xchg   %ax,%ax
  1032dc:	66 90                	xchg   %ax,%ax
  1032de:	66 90                	xchg   %ax,%ax
  1032e0:	66 90                	xchg   %ax,%ax
  1032e2:	66 90                	xchg   %ax,%ax
  1032e4:	66 90                	xchg   %ax,%ax
  1032e6:	66 90                	xchg   %ax,%ax
  1032e8:	66 90                	xchg   %ax,%ax
  1032ea:	66 90                	xchg   %ax,%ax
  1032ec:	66 90                	xchg   %ax,%ax
  1032ee:	66 90                	xchg   %ax,%ax
  1032f0:	66 90                	xchg   %ax,%ax
  1032f2:	66 90                	xchg   %ax,%ax
  1032f4:	66 90                	xchg   %ax,%ax
  1032f6:	66 90                	xchg   %ax,%ax
  1032f8:	66 90                	xchg   %ax,%ax
  1032fa:	66 90                	xchg   %ax,%ax
  1032fc:	66 90                	xchg   %ax,%ax
  1032fe:	66 90                	xchg   %ax,%ax
  103300:	66 90                	xchg   %ax,%ax
  103302:	66 90                	xchg   %ax,%ax
  103304:	66 90                	xchg   %ax,%ax
  103306:	66 90                	xchg   %ax,%ax
  103308:	66 90                	xchg   %ax,%ax
  10330a:	66 90                	xchg   %ax,%ax
  10330c:	66 90                	xchg   %ax,%ax
  10330e:	66 90                	xchg   %ax,%ax
  103310:	66 90                	xchg   %ax,%ax
  103312:	66 90                	xchg   %ax,%ax
  103314:	66 90                	xchg   %ax,%ax
  103316:	66 90                	xchg   %ax,%ax
  103318:	66 90                	xchg   %ax,%ax
  10331a:	66 90                	xchg   %ax,%ax
  10331c:	66 90                	xchg   %ax,%ax
  10331e:	66 90                	xchg   %ax,%ax
  103320:	66 90                	xchg   %ax,%ax
  103322:	66 90                	xchg   %ax,%ax
  103324:	66 90                	xchg   %ax,%ax
  103326:	66 90                	xchg   %ax,%ax
  103328:	66 90                	xchg   %ax,%ax
  10332a:	66 90                	xchg   %ax,%ax
  10332c:	66 90                	xchg   %ax,%ax
  10332e:	66 90                	xchg   %ax,%ax
  103330:	66 90                	xchg   %ax,%ax
  103332:	66 90                	xchg   %ax,%ax
  103334:	66 90                	xchg   %ax,%ax
  103336:	66 90                	xchg   %ax,%ax
  103338:	66 90                	xchg   %ax,%ax
  10333a:	66 90                	xchg   %ax,%ax
  10333c:	66 90                	xchg   %ax,%ax
  10333e:	66 90                	xchg   %ax,%ax
  103340:	66 90                	xchg   %ax,%ax
  103342:	66 90                	xchg   %ax,%ax
  103344:	66 90                	xchg   %ax,%ax
  103346:	66 90                	xchg   %ax,%ax
  103348:	66 90                	xchg   %ax,%ax
  10334a:	66 90                	xchg   %ax,%ax
  10334c:	66 90                	xchg   %ax,%ax
  10334e:	66 90                	xchg   %ax,%ax
  103350:	66 90                	xchg   %ax,%ax
  103352:	66 90                	xchg   %ax,%ax
  103354:	66 90                	xchg   %ax,%ax
  103356:	66 90                	xchg   %ax,%ax
  103358:	66 90                	xchg   %ax,%ax
  10335a:	66 90                	xchg   %ax,%ax
  10335c:	66 90                	xchg   %ax,%ax
  10335e:	66 90                	xchg   %ax,%ax
  103360:	66 90                	xchg   %ax,%ax
  103362:	66 90                	xchg   %ax,%ax
  103364:	66 90                	xchg   %ax,%ax
  103366:	66 90                	xchg   %ax,%ax
  103368:	66 90                	xchg   %ax,%ax
  10336a:	66 90                	xchg   %ax,%ax
  10336c:	66 90                	xchg   %ax,%ax
  10336e:	66 90                	xchg   %ax,%ax
  103370:	66 90                	xchg   %ax,%ax
  103372:	66 90                	xchg   %ax,%ax
  103374:	66 90                	xchg   %ax,%ax
  103376:	66 90                	xchg   %ax,%ax
  103378:	66 90                	xchg   %ax,%ax
  10337a:	66 90                	xchg   %ax,%ax
  10337c:	66 90                	xchg   %ax,%ax
  10337e:	66 90                	xchg   %ax,%ax
  103380:	66 90                	xchg   %ax,%ax
  103382:	66 90                	xchg   %ax,%ax
  103384:	66 90                	xchg   %ax,%ax
  103386:	66 90                	xchg   %ax,%ax
  103388:	66 90                	xchg   %ax,%ax
  10338a:	66 90                	xchg   %ax,%ax
  10338c:	66 90                	xchg   %ax,%ax
  10338e:	66 90                	xchg   %ax,%ax
  103390:	66 90                	xchg   %ax,%ax
  103392:	66 90                	xchg   %ax,%ax
  103394:	66 90                	xchg   %ax,%ax
  103396:	66 90                	xchg   %ax,%ax
  103398:	66 90                	xchg   %ax,%ax
  10339a:	66 90                	xchg   %ax,%ax
  10339c:	66 90                	xchg   %ax,%ax
  10339e:	66 90                	xchg   %ax,%ax
  1033a0:	66 90                	xchg   %ax,%ax
  1033a2:	66 90                	xchg   %ax,%ax
  1033a4:	66 90                	xchg   %ax,%ax
  1033a6:	66 90                	xchg   %ax,%ax
  1033a8:	66 90                	xchg   %ax,%ax
  1033aa:	66 90                	xchg   %ax,%ax
  1033ac:	66 90                	xchg   %ax,%ax
  1033ae:	66 90                	xchg   %ax,%ax
  1033b0:	66 90                	xchg   %ax,%ax
  1033b2:	66 90                	xchg   %ax,%ax
  1033b4:	66 90                	xchg   %ax,%ax
  1033b6:	66 90                	xchg   %ax,%ax
  1033b8:	66 90                	xchg   %ax,%ax
  1033ba:	66 90                	xchg   %ax,%ax
  1033bc:	66 90                	xchg   %ax,%ax
  1033be:	66 90                	xchg   %ax,%ax
  1033c0:	66 90                	xchg   %ax,%ax
  1033c2:	66 90                	xchg   %ax,%ax
  1033c4:	66 90                	xchg   %ax,%ax
  1033c6:	66 90                	xchg   %ax,%ax
  1033c8:	66 90                	xchg   %ax,%ax
  1033ca:	66 90                	xchg   %ax,%ax
  1033cc:	66 90                	xchg   %ax,%ax
  1033ce:	66 90                	xchg   %ax,%ax
  1033d0:	66 90                	xchg   %ax,%ax
  1033d2:	66 90                	xchg   %ax,%ax
  1033d4:	66 90                	xchg   %ax,%ax
  1033d6:	66 90                	xchg   %ax,%ax
  1033d8:	66 90                	xchg   %ax,%ax
  1033da:	66 90                	xchg   %ax,%ax
  1033dc:	66 90                	xchg   %ax,%ax
  1033de:	66 90                	xchg   %ax,%ax
  1033e0:	66 90                	xchg   %ax,%ax
  1033e2:	66 90                	xchg   %ax,%ax
  1033e4:	66 90                	xchg   %ax,%ax
  1033e6:	66 90                	xchg   %ax,%ax
  1033e8:	66 90                	xchg   %ax,%ax
  1033ea:	66 90                	xchg   %ax,%ax
  1033ec:	66 90                	xchg   %ax,%ax
  1033ee:	66 90                	xchg   %ax,%ax
  1033f0:	66 90                	xchg   %ax,%ax
  1033f2:	66 90                	xchg   %ax,%ax
  1033f4:	66 90                	xchg   %ax,%ax
  1033f6:	66 90                	xchg   %ax,%ax
  1033f8:	66 90                	xchg   %ax,%ax
  1033fa:	66 90                	xchg   %ax,%ax
  1033fc:	66 90                	xchg   %ax,%ax
  1033fe:	66 90                	xchg   %ax,%ax
  103400:	66 90                	xchg   %ax,%ax
  103402:	66 90                	xchg   %ax,%ax
  103404:	66 90                	xchg   %ax,%ax
  103406:	66 90                	xchg   %ax,%ax
  103408:	66 90                	xchg   %ax,%ax
  10340a:	66 90                	xchg   %ax,%ax
  10340c:	66 90                	xchg   %ax,%ax
  10340e:	66 90                	xchg   %ax,%ax
  103410:	66 90                	xchg   %ax,%ax
  103412:	66 90                	xchg   %ax,%ax
  103414:	66 90                	xchg   %ax,%ax
  103416:	66 90                	xchg   %ax,%ax
  103418:	66 90                	xchg   %ax,%ax
  10341a:	66 90                	xchg   %ax,%ax
  10341c:	66 90                	xchg   %ax,%ax
  10341e:	66 90                	xchg   %ax,%ax
  103420:	66 90                	xchg   %ax,%ax
  103422:	66 90                	xchg   %ax,%ax
  103424:	66 90                	xchg   %ax,%ax
  103426:	66 90                	xchg   %ax,%ax
  103428:	66 90                	xchg   %ax,%ax
  10342a:	66 90                	xchg   %ax,%ax
  10342c:	66 90                	xchg   %ax,%ax
  10342e:	66 90                	xchg   %ax,%ax
  103430:	66 90                	xchg   %ax,%ax
  103432:	66 90                	xchg   %ax,%ax
  103434:	66 90                	xchg   %ax,%ax
  103436:	66 90                	xchg   %ax,%ax
  103438:	66 90                	xchg   %ax,%ax
  10343a:	66 90                	xchg   %ax,%ax
  10343c:	66 90                	xchg   %ax,%ax
  10343e:	66 90                	xchg   %ax,%ax
  103440:	66 90                	xchg   %ax,%ax
  103442:	66 90                	xchg   %ax,%ax
  103444:	66 90                	xchg   %ax,%ax
  103446:	66 90                	xchg   %ax,%ax
  103448:	66 90                	xchg   %ax,%ax
  10344a:	66 90                	xchg   %ax,%ax
  10344c:	66 90                	xchg   %ax,%ax
  10344e:	66 90                	xchg   %ax,%ax
  103450:	66 90                	xchg   %ax,%ax
  103452:	66 90                	xchg   %ax,%ax
  103454:	66 90                	xchg   %ax,%ax
  103456:	66 90                	xchg   %ax,%ax
  103458:	66 90                	xchg   %ax,%ax
  10345a:	66 90                	xchg   %ax,%ax
  10345c:	66 90                	xchg   %ax,%ax
  10345e:	66 90                	xchg   %ax,%ax
  103460:	66 90                	xchg   %ax,%ax
  103462:	66 90                	xchg   %ax,%ax
  103464:	66 90                	xchg   %ax,%ax
  103466:	66 90                	xchg   %ax,%ax
  103468:	66 90                	xchg   %ax,%ax
  10346a:	66 90                	xchg   %ax,%ax
  10346c:	66 90                	xchg   %ax,%ax
  10346e:	66 90                	xchg   %ax,%ax
  103470:	66 90                	xchg   %ax,%ax
  103472:	66 90                	xchg   %ax,%ax
  103474:	66 90                	xchg   %ax,%ax
  103476:	66 90                	xchg   %ax,%ax
  103478:	66 90                	xchg   %ax,%ax
  10347a:	66 90                	xchg   %ax,%ax
  10347c:	66 90                	xchg   %ax,%ax
  10347e:	66 90                	xchg   %ax,%ax
  103480:	66 90                	xchg   %ax,%ax
  103482:	66 90                	xchg   %ax,%ax
  103484:	66 90                	xchg   %ax,%ax
  103486:	66 90                	xchg   %ax,%ax
  103488:	66 90                	xchg   %ax,%ax
  10348a:	66 90                	xchg   %ax,%ax
  10348c:	66 90                	xchg   %ax,%ax
  10348e:	66 90                	xchg   %ax,%ax
  103490:	66 90                	xchg   %ax,%ax
  103492:	66 90                	xchg   %ax,%ax
  103494:	66 90                	xchg   %ax,%ax
  103496:	66 90                	xchg   %ax,%ax
  103498:	66 90                	xchg   %ax,%ax
  10349a:	66 90                	xchg   %ax,%ax
  10349c:	66 90                	xchg   %ax,%ax
  10349e:	66 90                	xchg   %ax,%ax
  1034a0:	66 90                	xchg   %ax,%ax
  1034a2:	66 90                	xchg   %ax,%ax
  1034a4:	66 90                	xchg   %ax,%ax
  1034a6:	66 90                	xchg   %ax,%ax
  1034a8:	66 90                	xchg   %ax,%ax
  1034aa:	66 90                	xchg   %ax,%ax
  1034ac:	66 90                	xchg   %ax,%ax
  1034ae:	66 90                	xchg   %ax,%ax
  1034b0:	66 90                	xchg   %ax,%ax
  1034b2:	66 90                	xchg   %ax,%ax
  1034b4:	66 90                	xchg   %ax,%ax
  1034b6:	66 90                	xchg   %ax,%ax
  1034b8:	66 90                	xchg   %ax,%ax
  1034ba:	66 90                	xchg   %ax,%ax
  1034bc:	66 90                	xchg   %ax,%ax
  1034be:	66 90                	xchg   %ax,%ax
  1034c0:	66 90                	xchg   %ax,%ax
  1034c2:	66 90                	xchg   %ax,%ax
  1034c4:	66 90                	xchg   %ax,%ax
  1034c6:	66 90                	xchg   %ax,%ax
  1034c8:	66 90                	xchg   %ax,%ax
  1034ca:	66 90                	xchg   %ax,%ax
  1034cc:	66 90                	xchg   %ax,%ax
  1034ce:	66 90                	xchg   %ax,%ax
  1034d0:	66 90                	xchg   %ax,%ax
  1034d2:	66 90                	xchg   %ax,%ax
  1034d4:	66 90                	xchg   %ax,%ax
  1034d6:	66 90                	xchg   %ax,%ax
  1034d8:	66 90                	xchg   %ax,%ax
  1034da:	66 90                	xchg   %ax,%ax
  1034dc:	66 90                	xchg   %ax,%ax
  1034de:	66 90                	xchg   %ax,%ax
  1034e0:	66 90                	xchg   %ax,%ax
  1034e2:	66 90                	xchg   %ax,%ax
  1034e4:	66 90                	xchg   %ax,%ax
  1034e6:	66 90                	xchg   %ax,%ax
  1034e8:	66 90                	xchg   %ax,%ax
  1034ea:	66 90                	xchg   %ax,%ax
  1034ec:	66 90                	xchg   %ax,%ax
  1034ee:	66 90                	xchg   %ax,%ax
  1034f0:	66 90                	xchg   %ax,%ax
  1034f2:	66 90                	xchg   %ax,%ax
  1034f4:	66 90                	xchg   %ax,%ax
  1034f6:	66 90                	xchg   %ax,%ax
  1034f8:	66 90                	xchg   %ax,%ax
  1034fa:	66 90                	xchg   %ax,%ax
  1034fc:	66 90                	xchg   %ax,%ax
  1034fe:	66 90                	xchg   %ax,%ax
  103500:	66 90                	xchg   %ax,%ax
  103502:	66 90                	xchg   %ax,%ax
  103504:	66 90                	xchg   %ax,%ax
  103506:	66 90                	xchg   %ax,%ax
  103508:	66 90                	xchg   %ax,%ax
  10350a:	66 90                	xchg   %ax,%ax
  10350c:	66 90                	xchg   %ax,%ax
  10350e:	66 90                	xchg   %ax,%ax
  103510:	66 90                	xchg   %ax,%ax
  103512:	66 90                	xchg   %ax,%ax
  103514:	66 90                	xchg   %ax,%ax
  103516:	66 90                	xchg   %ax,%ax
  103518:	66 90                	xchg   %ax,%ax
  10351a:	66 90                	xchg   %ax,%ax
  10351c:	66 90                	xchg   %ax,%ax
  10351e:	66 90                	xchg   %ax,%ax
  103520:	66 90                	xchg   %ax,%ax
  103522:	66 90                	xchg   %ax,%ax
  103524:	66 90                	xchg   %ax,%ax
  103526:	66 90                	xchg   %ax,%ax
  103528:	66 90                	xchg   %ax,%ax
  10352a:	66 90                	xchg   %ax,%ax
  10352c:	66 90                	xchg   %ax,%ax
  10352e:	66 90                	xchg   %ax,%ax
  103530:	66 90                	xchg   %ax,%ax
  103532:	66 90                	xchg   %ax,%ax
  103534:	66 90                	xchg   %ax,%ax
  103536:	66 90                	xchg   %ax,%ax
  103538:	66 90                	xchg   %ax,%ax
  10353a:	66 90                	xchg   %ax,%ax
  10353c:	66 90                	xchg   %ax,%ax
  10353e:	66 90                	xchg   %ax,%ax
  103540:	66 90                	xchg   %ax,%ax
  103542:	66 90                	xchg   %ax,%ax
  103544:	66 90                	xchg   %ax,%ax
  103546:	66 90                	xchg   %ax,%ax
  103548:	66 90                	xchg   %ax,%ax
  10354a:	66 90                	xchg   %ax,%ax
  10354c:	66 90                	xchg   %ax,%ax
  10354e:	66 90                	xchg   %ax,%ax
  103550:	66 90                	xchg   %ax,%ax
  103552:	66 90                	xchg   %ax,%ax
  103554:	66 90                	xchg   %ax,%ax
  103556:	66 90                	xchg   %ax,%ax
  103558:	66 90                	xchg   %ax,%ax
  10355a:	66 90                	xchg   %ax,%ax
  10355c:	66 90                	xchg   %ax,%ax
  10355e:	66 90                	xchg   %ax,%ax
  103560:	66 90                	xchg   %ax,%ax
  103562:	66 90                	xchg   %ax,%ax
  103564:	66 90                	xchg   %ax,%ax
  103566:	66 90                	xchg   %ax,%ax
  103568:	66 90                	xchg   %ax,%ax
  10356a:	66 90                	xchg   %ax,%ax
  10356c:	66 90                	xchg   %ax,%ax
  10356e:	66 90                	xchg   %ax,%ax
  103570:	66 90                	xchg   %ax,%ax
  103572:	66 90                	xchg   %ax,%ax
  103574:	66 90                	xchg   %ax,%ax
  103576:	66 90                	xchg   %ax,%ax
  103578:	66 90                	xchg   %ax,%ax
  10357a:	66 90                	xchg   %ax,%ax
  10357c:	66 90                	xchg   %ax,%ax
  10357e:	66 90                	xchg   %ax,%ax
  103580:	66 90                	xchg   %ax,%ax
  103582:	66 90                	xchg   %ax,%ax
  103584:	66 90                	xchg   %ax,%ax
  103586:	66 90                	xchg   %ax,%ax
  103588:	66 90                	xchg   %ax,%ax
  10358a:	66 90                	xchg   %ax,%ax
  10358c:	66 90                	xchg   %ax,%ax
  10358e:	66 90                	xchg   %ax,%ax
  103590:	66 90                	xchg   %ax,%ax
  103592:	66 90                	xchg   %ax,%ax
  103594:	66 90                	xchg   %ax,%ax
  103596:	66 90                	xchg   %ax,%ax
  103598:	66 90                	xchg   %ax,%ax
  10359a:	66 90                	xchg   %ax,%ax
  10359c:	66 90                	xchg   %ax,%ax
  10359e:	66 90                	xchg   %ax,%ax
  1035a0:	66 90                	xchg   %ax,%ax
  1035a2:	66 90                	xchg   %ax,%ax
  1035a4:	66 90                	xchg   %ax,%ax
  1035a6:	66 90                	xchg   %ax,%ax
  1035a8:	66 90                	xchg   %ax,%ax
  1035aa:	66 90                	xchg   %ax,%ax
  1035ac:	66 90                	xchg   %ax,%ax
  1035ae:	66 90                	xchg   %ax,%ax
  1035b0:	66 90                	xchg   %ax,%ax
  1035b2:	66 90                	xchg   %ax,%ax
  1035b4:	66 90                	xchg   %ax,%ax
  1035b6:	66 90                	xchg   %ax,%ax
  1035b8:	66 90                	xchg   %ax,%ax
  1035ba:	66 90                	xchg   %ax,%ax
  1035bc:	66 90                	xchg   %ax,%ax
  1035be:	66 90                	xchg   %ax,%ax
  1035c0:	66 90                	xchg   %ax,%ax
  1035c2:	66 90                	xchg   %ax,%ax
  1035c4:	66 90                	xchg   %ax,%ax
  1035c6:	66 90                	xchg   %ax,%ax
  1035c8:	66 90                	xchg   %ax,%ax
  1035ca:	66 90                	xchg   %ax,%ax
  1035cc:	66 90                	xchg   %ax,%ax
  1035ce:	66 90                	xchg   %ax,%ax
  1035d0:	66 90                	xchg   %ax,%ax
  1035d2:	66 90                	xchg   %ax,%ax
  1035d4:	66 90                	xchg   %ax,%ax
  1035d6:	66 90                	xchg   %ax,%ax
  1035d8:	66 90                	xchg   %ax,%ax
  1035da:	66 90                	xchg   %ax,%ax
  1035dc:	66 90                	xchg   %ax,%ax
  1035de:	66 90                	xchg   %ax,%ax
  1035e0:	66 90                	xchg   %ax,%ax
  1035e2:	66 90                	xchg   %ax,%ax
  1035e4:	66 90                	xchg   %ax,%ax
  1035e6:	66 90                	xchg   %ax,%ax
  1035e8:	66 90                	xchg   %ax,%ax
  1035ea:	66 90                	xchg   %ax,%ax
  1035ec:	66 90                	xchg   %ax,%ax
  1035ee:	66 90                	xchg   %ax,%ax
  1035f0:	66 90                	xchg   %ax,%ax
  1035f2:	66 90                	xchg   %ax,%ax
  1035f4:	66 90                	xchg   %ax,%ax
  1035f6:	66 90                	xchg   %ax,%ax
  1035f8:	66 90                	xchg   %ax,%ax
  1035fa:	66 90                	xchg   %ax,%ax
  1035fc:	66 90                	xchg   %ax,%ax
  1035fe:	66 90                	xchg   %ax,%ax
  103600:	66 90                	xchg   %ax,%ax
  103602:	66 90                	xchg   %ax,%ax
  103604:	66 90                	xchg   %ax,%ax
  103606:	66 90                	xchg   %ax,%ax
  103608:	66 90                	xchg   %ax,%ax
  10360a:	66 90                	xchg   %ax,%ax
  10360c:	66 90                	xchg   %ax,%ax
  10360e:	66 90                	xchg   %ax,%ax
  103610:	66 90                	xchg   %ax,%ax
  103612:	66 90                	xchg   %ax,%ax
  103614:	66 90                	xchg   %ax,%ax
  103616:	66 90                	xchg   %ax,%ax
  103618:	66 90                	xchg   %ax,%ax
  10361a:	66 90                	xchg   %ax,%ax
  10361c:	66 90                	xchg   %ax,%ax
  10361e:	66 90                	xchg   %ax,%ax
  103620:	66 90                	xchg   %ax,%ax
  103622:	66 90                	xchg   %ax,%ax
  103624:	66 90                	xchg   %ax,%ax
  103626:	66 90                	xchg   %ax,%ax
  103628:	66 90                	xchg   %ax,%ax
  10362a:	66 90                	xchg   %ax,%ax
  10362c:	66 90                	xchg   %ax,%ax
  10362e:	66 90                	xchg   %ax,%ax
  103630:	66 90                	xchg   %ax,%ax
  103632:	66 90                	xchg   %ax,%ax
  103634:	66 90                	xchg   %ax,%ax
  103636:	66 90                	xchg   %ax,%ax
  103638:	66 90                	xchg   %ax,%ax
  10363a:	66 90                	xchg   %ax,%ax
  10363c:	66 90                	xchg   %ax,%ax
  10363e:	66 90                	xchg   %ax,%ax
  103640:	66 90                	xchg   %ax,%ax
  103642:	66 90                	xchg   %ax,%ax
  103644:	66 90                	xchg   %ax,%ax
  103646:	66 90                	xchg   %ax,%ax
  103648:	66 90                	xchg   %ax,%ax
  10364a:	66 90                	xchg   %ax,%ax
  10364c:	66 90                	xchg   %ax,%ax
  10364e:	66 90                	xchg   %ax,%ax
  103650:	66 90                	xchg   %ax,%ax
  103652:	66 90                	xchg   %ax,%ax
  103654:	66 90                	xchg   %ax,%ax
  103656:	66 90                	xchg   %ax,%ax
  103658:	66 90                	xchg   %ax,%ax
  10365a:	66 90                	xchg   %ax,%ax
  10365c:	66 90                	xchg   %ax,%ax
  10365e:	66 90                	xchg   %ax,%ax
  103660:	66 90                	xchg   %ax,%ax
  103662:	66 90                	xchg   %ax,%ax
  103664:	66 90                	xchg   %ax,%ax
  103666:	66 90                	xchg   %ax,%ax
  103668:	66 90                	xchg   %ax,%ax
  10366a:	66 90                	xchg   %ax,%ax
  10366c:	66 90                	xchg   %ax,%ax
  10366e:	66 90                	xchg   %ax,%ax
  103670:	66 90                	xchg   %ax,%ax
  103672:	66 90                	xchg   %ax,%ax
  103674:	66 90                	xchg   %ax,%ax
  103676:	66 90                	xchg   %ax,%ax
  103678:	66 90                	xchg   %ax,%ax
  10367a:	66 90                	xchg   %ax,%ax
  10367c:	66 90                	xchg   %ax,%ax
  10367e:	66 90                	xchg   %ax,%ax
  103680:	66 90                	xchg   %ax,%ax
  103682:	66 90                	xchg   %ax,%ax
  103684:	66 90                	xchg   %ax,%ax
  103686:	66 90                	xchg   %ax,%ax
  103688:	66 90                	xchg   %ax,%ax
  10368a:	66 90                	xchg   %ax,%ax
  10368c:	66 90                	xchg   %ax,%ax
  10368e:	66 90                	xchg   %ax,%ax
  103690:	66 90                	xchg   %ax,%ax
  103692:	66 90                	xchg   %ax,%ax
  103694:	66 90                	xchg   %ax,%ax
  103696:	66 90                	xchg   %ax,%ax
  103698:	66 90                	xchg   %ax,%ax
  10369a:	66 90                	xchg   %ax,%ax
  10369c:	66 90                	xchg   %ax,%ax
  10369e:	66 90                	xchg   %ax,%ax
  1036a0:	66 90                	xchg   %ax,%ax
  1036a2:	66 90                	xchg   %ax,%ax
  1036a4:	66 90                	xchg   %ax,%ax
  1036a6:	66 90                	xchg   %ax,%ax
  1036a8:	66 90                	xchg   %ax,%ax
  1036aa:	66 90                	xchg   %ax,%ax
  1036ac:	66 90                	xchg   %ax,%ax
  1036ae:	66 90                	xchg   %ax,%ax
  1036b0:	66 90                	xchg   %ax,%ax
  1036b2:	66 90                	xchg   %ax,%ax
  1036b4:	66 90                	xchg   %ax,%ax
  1036b6:	66 90                	xchg   %ax,%ax
  1036b8:	66 90                	xchg   %ax,%ax
  1036ba:	66 90                	xchg   %ax,%ax
  1036bc:	66 90                	xchg   %ax,%ax
  1036be:	66 90                	xchg   %ax,%ax
  1036c0:	66 90                	xchg   %ax,%ax
  1036c2:	66 90                	xchg   %ax,%ax
  1036c4:	66 90                	xchg   %ax,%ax
  1036c6:	66 90                	xchg   %ax,%ax
  1036c8:	66 90                	xchg   %ax,%ax
  1036ca:	66 90                	xchg   %ax,%ax
  1036cc:	66 90                	xchg   %ax,%ax
  1036ce:	66 90                	xchg   %ax,%ax
  1036d0:	66 90                	xchg   %ax,%ax
  1036d2:	66 90                	xchg   %ax,%ax
  1036d4:	66 90                	xchg   %ax,%ax
  1036d6:	66 90                	xchg   %ax,%ax
  1036d8:	66 90                	xchg   %ax,%ax
  1036da:	66 90                	xchg   %ax,%ax
  1036dc:	66 90                	xchg   %ax,%ax
  1036de:	66 90                	xchg   %ax,%ax
  1036e0:	66 90                	xchg   %ax,%ax
  1036e2:	66 90                	xchg   %ax,%ax
  1036e4:	66 90                	xchg   %ax,%ax
  1036e6:	66 90                	xchg   %ax,%ax
  1036e8:	66 90                	xchg   %ax,%ax
  1036ea:	66 90                	xchg   %ax,%ax
  1036ec:	66 90                	xchg   %ax,%ax
  1036ee:	66 90                	xchg   %ax,%ax
  1036f0:	66 90                	xchg   %ax,%ax
  1036f2:	66 90                	xchg   %ax,%ax
  1036f4:	66 90                	xchg   %ax,%ax
  1036f6:	66 90                	xchg   %ax,%ax
  1036f8:	66 90                	xchg   %ax,%ax
  1036fa:	66 90                	xchg   %ax,%ax
  1036fc:	66 90                	xchg   %ax,%ax
  1036fe:	66 90                	xchg   %ax,%ax
  103700:	66 90                	xchg   %ax,%ax
  103702:	66 90                	xchg   %ax,%ax
  103704:	66 90                	xchg   %ax,%ax
  103706:	66 90                	xchg   %ax,%ax
  103708:	66 90                	xchg   %ax,%ax
  10370a:	66 90                	xchg   %ax,%ax
  10370c:	66 90                	xchg   %ax,%ax
  10370e:	66 90                	xchg   %ax,%ax
  103710:	66 90                	xchg   %ax,%ax
  103712:	66 90                	xchg   %ax,%ax
  103714:	66 90                	xchg   %ax,%ax
  103716:	66 90                	xchg   %ax,%ax
  103718:	66 90                	xchg   %ax,%ax
  10371a:	66 90                	xchg   %ax,%ax
  10371c:	66 90                	xchg   %ax,%ax
  10371e:	66 90                	xchg   %ax,%ax
  103720:	66 90                	xchg   %ax,%ax
  103722:	66 90                	xchg   %ax,%ax
  103724:	66 90                	xchg   %ax,%ax
  103726:	66 90                	xchg   %ax,%ax
  103728:	66 90                	xchg   %ax,%ax
  10372a:	66 90                	xchg   %ax,%ax
  10372c:	66 90                	xchg   %ax,%ax
  10372e:	66 90                	xchg   %ax,%ax
  103730:	66 90                	xchg   %ax,%ax
  103732:	66 90                	xchg   %ax,%ax
  103734:	66 90                	xchg   %ax,%ax
  103736:	66 90                	xchg   %ax,%ax
  103738:	66 90                	xchg   %ax,%ax
  10373a:	66 90                	xchg   %ax,%ax
  10373c:	66 90                	xchg   %ax,%ax
  10373e:	66 90                	xchg   %ax,%ax
  103740:	66 90                	xchg   %ax,%ax
  103742:	66 90                	xchg   %ax,%ax
  103744:	66 90                	xchg   %ax,%ax
  103746:	66 90                	xchg   %ax,%ax
  103748:	66 90                	xchg   %ax,%ax
  10374a:	66 90                	xchg   %ax,%ax
  10374c:	66 90                	xchg   %ax,%ax
  10374e:	66 90                	xchg   %ax,%ax
  103750:	66 90                	xchg   %ax,%ax
  103752:	66 90                	xchg   %ax,%ax
  103754:	66 90                	xchg   %ax,%ax
  103756:	66 90                	xchg   %ax,%ax
  103758:	66 90                	xchg   %ax,%ax
  10375a:	66 90                	xchg   %ax,%ax
  10375c:	66 90                	xchg   %ax,%ax
  10375e:	66 90                	xchg   %ax,%ax
  103760:	66 90                	xchg   %ax,%ax
  103762:	66 90                	xchg   %ax,%ax
  103764:	66 90                	xchg   %ax,%ax
  103766:	66 90                	xchg   %ax,%ax
  103768:	66 90                	xchg   %ax,%ax
  10376a:	66 90                	xchg   %ax,%ax
  10376c:	66 90                	xchg   %ax,%ax
  10376e:	66 90                	xchg   %ax,%ax
  103770:	66 90                	xchg   %ax,%ax
  103772:	66 90                	xchg   %ax,%ax
  103774:	66 90                	xchg   %ax,%ax
  103776:	66 90                	xchg   %ax,%ax
  103778:	66 90                	xchg   %ax,%ax
  10377a:	66 90                	xchg   %ax,%ax
  10377c:	66 90                	xchg   %ax,%ax
  10377e:	66 90                	xchg   %ax,%ax
  103780:	66 90                	xchg   %ax,%ax
  103782:	66 90                	xchg   %ax,%ax
  103784:	66 90                	xchg   %ax,%ax
  103786:	66 90                	xchg   %ax,%ax
  103788:	66 90                	xchg   %ax,%ax
  10378a:	66 90                	xchg   %ax,%ax
  10378c:	66 90                	xchg   %ax,%ax
  10378e:	66 90                	xchg   %ax,%ax
  103790:	66 90                	xchg   %ax,%ax
  103792:	66 90                	xchg   %ax,%ax
  103794:	66 90                	xchg   %ax,%ax
  103796:	66 90                	xchg   %ax,%ax
  103798:	66 90                	xchg   %ax,%ax
  10379a:	66 90                	xchg   %ax,%ax
  10379c:	66 90                	xchg   %ax,%ax
  10379e:	66 90                	xchg   %ax,%ax
  1037a0:	66 90                	xchg   %ax,%ax
  1037a2:	66 90                	xchg   %ax,%ax
  1037a4:	66 90                	xchg   %ax,%ax
  1037a6:	66 90                	xchg   %ax,%ax
  1037a8:	66 90                	xchg   %ax,%ax
  1037aa:	66 90                	xchg   %ax,%ax
  1037ac:	66 90                	xchg   %ax,%ax
  1037ae:	66 90                	xchg   %ax,%ax
  1037b0:	66 90                	xchg   %ax,%ax
  1037b2:	66 90                	xchg   %ax,%ax
  1037b4:	66 90                	xchg   %ax,%ax
  1037b6:	66 90                	xchg   %ax,%ax
  1037b8:	66 90                	xchg   %ax,%ax
  1037ba:	66 90                	xchg   %ax,%ax
  1037bc:	66 90                	xchg   %ax,%ax
  1037be:	66 90                	xchg   %ax,%ax
  1037c0:	66 90                	xchg   %ax,%ax
  1037c2:	66 90                	xchg   %ax,%ax
  1037c4:	66 90                	xchg   %ax,%ax
  1037c6:	66 90                	xchg   %ax,%ax
  1037c8:	66 90                	xchg   %ax,%ax
  1037ca:	66 90                	xchg   %ax,%ax
  1037cc:	66 90                	xchg   %ax,%ax
  1037ce:	66 90                	xchg   %ax,%ax
  1037d0:	66 90                	xchg   %ax,%ax
  1037d2:	66 90                	xchg   %ax,%ax
  1037d4:	66 90                	xchg   %ax,%ax
  1037d6:	66 90                	xchg   %ax,%ax
  1037d8:	66 90                	xchg   %ax,%ax
  1037da:	66 90                	xchg   %ax,%ax
  1037dc:	66 90                	xchg   %ax,%ax
  1037de:	66 90                	xchg   %ax,%ax
  1037e0:	66 90                	xchg   %ax,%ax
  1037e2:	66 90                	xchg   %ax,%ax
  1037e4:	66 90                	xchg   %ax,%ax
  1037e6:	66 90                	xchg   %ax,%ax
  1037e8:	66 90                	xchg   %ax,%ax
  1037ea:	66 90                	xchg   %ax,%ax
  1037ec:	66 90                	xchg   %ax,%ax
  1037ee:	66 90                	xchg   %ax,%ax
  1037f0:	66 90                	xchg   %ax,%ax
  1037f2:	66 90                	xchg   %ax,%ax
  1037f4:	66 90                	xchg   %ax,%ax
  1037f6:	66 90                	xchg   %ax,%ax
  1037f8:	66 90                	xchg   %ax,%ax
  1037fa:	66 90                	xchg   %ax,%ax
  1037fc:	66 90                	xchg   %ax,%ax
  1037fe:	66 90                	xchg   %ax,%ax
  103800:	66 90                	xchg   %ax,%ax
  103802:	66 90                	xchg   %ax,%ax
  103804:	66 90                	xchg   %ax,%ax
  103806:	66 90                	xchg   %ax,%ax
  103808:	66 90                	xchg   %ax,%ax
  10380a:	66 90                	xchg   %ax,%ax
  10380c:	66 90                	xchg   %ax,%ax
  10380e:	66 90                	xchg   %ax,%ax
  103810:	66 90                	xchg   %ax,%ax
  103812:	66 90                	xchg   %ax,%ax
  103814:	66 90                	xchg   %ax,%ax
  103816:	66 90                	xchg   %ax,%ax
  103818:	66 90                	xchg   %ax,%ax
  10381a:	66 90                	xchg   %ax,%ax
  10381c:	66 90                	xchg   %ax,%ax
  10381e:	66 90                	xchg   %ax,%ax
  103820:	66 90                	xchg   %ax,%ax
  103822:	66 90                	xchg   %ax,%ax
  103824:	66 90                	xchg   %ax,%ax
  103826:	66 90                	xchg   %ax,%ax
  103828:	66 90                	xchg   %ax,%ax
  10382a:	66 90                	xchg   %ax,%ax
  10382c:	66 90                	xchg   %ax,%ax
  10382e:	66 90                	xchg   %ax,%ax
  103830:	66 90                	xchg   %ax,%ax
  103832:	66 90                	xchg   %ax,%ax
  103834:	66 90                	xchg   %ax,%ax
  103836:	66 90                	xchg   %ax,%ax
  103838:	66 90                	xchg   %ax,%ax
  10383a:	66 90                	xchg   %ax,%ax
  10383c:	66 90                	xchg   %ax,%ax
  10383e:	66 90                	xchg   %ax,%ax
  103840:	66 90                	xchg   %ax,%ax
  103842:	66 90                	xchg   %ax,%ax
  103844:	66 90                	xchg   %ax,%ax
  103846:	66 90                	xchg   %ax,%ax
  103848:	66 90                	xchg   %ax,%ax
  10384a:	66 90                	xchg   %ax,%ax
  10384c:	66 90                	xchg   %ax,%ax
  10384e:	66 90                	xchg   %ax,%ax
  103850:	66 90                	xchg   %ax,%ax
  103852:	66 90                	xchg   %ax,%ax
  103854:	66 90                	xchg   %ax,%ax
  103856:	66 90                	xchg   %ax,%ax
  103858:	66 90                	xchg   %ax,%ax
  10385a:	66 90                	xchg   %ax,%ax
  10385c:	66 90                	xchg   %ax,%ax
  10385e:	66 90                	xchg   %ax,%ax
  103860:	66 90                	xchg   %ax,%ax
  103862:	66 90                	xchg   %ax,%ax
  103864:	66 90                	xchg   %ax,%ax
  103866:	66 90                	xchg   %ax,%ax
  103868:	66 90                	xchg   %ax,%ax
  10386a:	66 90                	xchg   %ax,%ax
  10386c:	66 90                	xchg   %ax,%ax
  10386e:	66 90                	xchg   %ax,%ax
  103870:	66 90                	xchg   %ax,%ax
  103872:	66 90                	xchg   %ax,%ax
  103874:	66 90                	xchg   %ax,%ax
  103876:	66 90                	xchg   %ax,%ax
  103878:	66 90                	xchg   %ax,%ax
  10387a:	66 90                	xchg   %ax,%ax
  10387c:	66 90                	xchg   %ax,%ax
  10387e:	66 90                	xchg   %ax,%ax
  103880:	66 90                	xchg   %ax,%ax
  103882:	66 90                	xchg   %ax,%ax
  103884:	66 90                	xchg   %ax,%ax
  103886:	66 90                	xchg   %ax,%ax
  103888:	66 90                	xchg   %ax,%ax
  10388a:	66 90                	xchg   %ax,%ax
  10388c:	66 90                	xchg   %ax,%ax
  10388e:	66 90                	xchg   %ax,%ax
  103890:	66 90                	xchg   %ax,%ax
  103892:	66 90                	xchg   %ax,%ax
  103894:	66 90                	xchg   %ax,%ax
  103896:	66 90                	xchg   %ax,%ax
  103898:	66 90                	xchg   %ax,%ax
  10389a:	66 90                	xchg   %ax,%ax
  10389c:	66 90                	xchg   %ax,%ax
  10389e:	66 90                	xchg   %ax,%ax
  1038a0:	66 90                	xchg   %ax,%ax
  1038a2:	66 90                	xchg   %ax,%ax
  1038a4:	66 90                	xchg   %ax,%ax
  1038a6:	66 90                	xchg   %ax,%ax
  1038a8:	66 90                	xchg   %ax,%ax
  1038aa:	66 90                	xchg   %ax,%ax
  1038ac:	66 90                	xchg   %ax,%ax
  1038ae:	66 90                	xchg   %ax,%ax
  1038b0:	66 90                	xchg   %ax,%ax
  1038b2:	66 90                	xchg   %ax,%ax
  1038b4:	66 90                	xchg   %ax,%ax
  1038b6:	66 90                	xchg   %ax,%ax
  1038b8:	66 90                	xchg   %ax,%ax
  1038ba:	66 90                	xchg   %ax,%ax
  1038bc:	66 90                	xchg   %ax,%ax
  1038be:	66 90                	xchg   %ax,%ax
  1038c0:	66 90                	xchg   %ax,%ax
  1038c2:	66 90                	xchg   %ax,%ax
  1038c4:	66 90                	xchg   %ax,%ax
  1038c6:	66 90                	xchg   %ax,%ax
  1038c8:	66 90                	xchg   %ax,%ax
  1038ca:	66 90                	xchg   %ax,%ax
  1038cc:	66 90                	xchg   %ax,%ax
  1038ce:	66 90                	xchg   %ax,%ax
  1038d0:	66 90                	xchg   %ax,%ax
  1038d2:	66 90                	xchg   %ax,%ax
  1038d4:	66 90                	xchg   %ax,%ax
  1038d6:	66 90                	xchg   %ax,%ax
  1038d8:	66 90                	xchg   %ax,%ax
  1038da:	66 90                	xchg   %ax,%ax
  1038dc:	66 90                	xchg   %ax,%ax
  1038de:	66 90                	xchg   %ax,%ax
  1038e0:	66 90                	xchg   %ax,%ax
  1038e2:	66 90                	xchg   %ax,%ax
  1038e4:	66 90                	xchg   %ax,%ax
  1038e6:	66 90                	xchg   %ax,%ax
  1038e8:	66 90                	xchg   %ax,%ax
  1038ea:	66 90                	xchg   %ax,%ax
  1038ec:	66 90                	xchg   %ax,%ax
  1038ee:	66 90                	xchg   %ax,%ax
  1038f0:	66 90                	xchg   %ax,%ax
  1038f2:	66 90                	xchg   %ax,%ax
  1038f4:	66 90                	xchg   %ax,%ax
  1038f6:	66 90                	xchg   %ax,%ax
  1038f8:	66 90                	xchg   %ax,%ax
  1038fa:	66 90                	xchg   %ax,%ax
  1038fc:	66 90                	xchg   %ax,%ax
  1038fe:	66 90                	xchg   %ax,%ax
  103900:	66 90                	xchg   %ax,%ax
  103902:	66 90                	xchg   %ax,%ax
  103904:	66 90                	xchg   %ax,%ax
  103906:	66 90                	xchg   %ax,%ax
  103908:	66 90                	xchg   %ax,%ax
  10390a:	66 90                	xchg   %ax,%ax
  10390c:	66 90                	xchg   %ax,%ax
  10390e:	66 90                	xchg   %ax,%ax
  103910:	66 90                	xchg   %ax,%ax
  103912:	66 90                	xchg   %ax,%ax
  103914:	66 90                	xchg   %ax,%ax
  103916:	66 90                	xchg   %ax,%ax
  103918:	66 90                	xchg   %ax,%ax
  10391a:	66 90                	xchg   %ax,%ax
  10391c:	66 90                	xchg   %ax,%ax
  10391e:	66 90                	xchg   %ax,%ax
  103920:	66 90                	xchg   %ax,%ax
  103922:	66 90                	xchg   %ax,%ax
  103924:	66 90                	xchg   %ax,%ax
  103926:	66 90                	xchg   %ax,%ax
  103928:	66 90                	xchg   %ax,%ax
  10392a:	66 90                	xchg   %ax,%ax
  10392c:	66 90                	xchg   %ax,%ax
  10392e:	66 90                	xchg   %ax,%ax
  103930:	66 90                	xchg   %ax,%ax
  103932:	66 90                	xchg   %ax,%ax
  103934:	66 90                	xchg   %ax,%ax
  103936:	66 90                	xchg   %ax,%ax
  103938:	66 90                	xchg   %ax,%ax
  10393a:	66 90                	xchg   %ax,%ax
  10393c:	66 90                	xchg   %ax,%ax
  10393e:	66 90                	xchg   %ax,%ax
  103940:	66 90                	xchg   %ax,%ax
  103942:	66 90                	xchg   %ax,%ax
  103944:	66 90                	xchg   %ax,%ax
  103946:	66 90                	xchg   %ax,%ax
  103948:	66 90                	xchg   %ax,%ax
  10394a:	66 90                	xchg   %ax,%ax
  10394c:	66 90                	xchg   %ax,%ax
  10394e:	66 90                	xchg   %ax,%ax
  103950:	66 90                	xchg   %ax,%ax
  103952:	66 90                	xchg   %ax,%ax
  103954:	66 90                	xchg   %ax,%ax
  103956:	66 90                	xchg   %ax,%ax
  103958:	66 90                	xchg   %ax,%ax
  10395a:	66 90                	xchg   %ax,%ax
  10395c:	66 90                	xchg   %ax,%ax
  10395e:	66 90                	xchg   %ax,%ax
  103960:	66 90                	xchg   %ax,%ax
  103962:	66 90                	xchg   %ax,%ax
  103964:	66 90                	xchg   %ax,%ax
  103966:	66 90                	xchg   %ax,%ax
  103968:	66 90                	xchg   %ax,%ax
  10396a:	66 90                	xchg   %ax,%ax
  10396c:	66 90                	xchg   %ax,%ax
  10396e:	66 90                	xchg   %ax,%ax
  103970:	66 90                	xchg   %ax,%ax
  103972:	66 90                	xchg   %ax,%ax
  103974:	66 90                	xchg   %ax,%ax
  103976:	66 90                	xchg   %ax,%ax
  103978:	66 90                	xchg   %ax,%ax
  10397a:	66 90                	xchg   %ax,%ax
  10397c:	66 90                	xchg   %ax,%ax
  10397e:	66 90                	xchg   %ax,%ax
  103980:	66 90                	xchg   %ax,%ax
  103982:	66 90                	xchg   %ax,%ax
  103984:	66 90                	xchg   %ax,%ax
  103986:	66 90                	xchg   %ax,%ax
  103988:	66 90                	xchg   %ax,%ax
  10398a:	66 90                	xchg   %ax,%ax
  10398c:	66 90                	xchg   %ax,%ax
  10398e:	66 90                	xchg   %ax,%ax
  103990:	66 90                	xchg   %ax,%ax
  103992:	66 90                	xchg   %ax,%ax
  103994:	66 90                	xchg   %ax,%ax
  103996:	66 90                	xchg   %ax,%ax
  103998:	66 90                	xchg   %ax,%ax
  10399a:	66 90                	xchg   %ax,%ax
  10399c:	66 90                	xchg   %ax,%ax
  10399e:	66 90                	xchg   %ax,%ax
  1039a0:	66 90                	xchg   %ax,%ax
  1039a2:	66 90                	xchg   %ax,%ax
  1039a4:	66 90                	xchg   %ax,%ax
  1039a6:	66 90                	xchg   %ax,%ax
  1039a8:	66 90                	xchg   %ax,%ax
  1039aa:	66 90                	xchg   %ax,%ax
  1039ac:	66 90                	xchg   %ax,%ax
  1039ae:	66 90                	xchg   %ax,%ax
  1039b0:	66 90                	xchg   %ax,%ax
  1039b2:	66 90                	xchg   %ax,%ax
  1039b4:	66 90                	xchg   %ax,%ax
  1039b6:	66 90                	xchg   %ax,%ax
  1039b8:	66 90                	xchg   %ax,%ax
  1039ba:	66 90                	xchg   %ax,%ax
  1039bc:	66 90                	xchg   %ax,%ax
  1039be:	66 90                	xchg   %ax,%ax
  1039c0:	66 90                	xchg   %ax,%ax
  1039c2:	66 90                	xchg   %ax,%ax
  1039c4:	66 90                	xchg   %ax,%ax
  1039c6:	66 90                	xchg   %ax,%ax
  1039c8:	66 90                	xchg   %ax,%ax
  1039ca:	66 90                	xchg   %ax,%ax
  1039cc:	66 90                	xchg   %ax,%ax
  1039ce:	66 90                	xchg   %ax,%ax
  1039d0:	66 90                	xchg   %ax,%ax
  1039d2:	66 90                	xchg   %ax,%ax
  1039d4:	66 90                	xchg   %ax,%ax
  1039d6:	66 90                	xchg   %ax,%ax
  1039d8:	66 90                	xchg   %ax,%ax
  1039da:	66 90                	xchg   %ax,%ax
  1039dc:	66 90                	xchg   %ax,%ax
  1039de:	66 90                	xchg   %ax,%ax
  1039e0:	66 90                	xchg   %ax,%ax
  1039e2:	66 90                	xchg   %ax,%ax
  1039e4:	66 90                	xchg   %ax,%ax
  1039e6:	66 90                	xchg   %ax,%ax
  1039e8:	66 90                	xchg   %ax,%ax
  1039ea:	66 90                	xchg   %ax,%ax
  1039ec:	66 90                	xchg   %ax,%ax
  1039ee:	66 90                	xchg   %ax,%ax
  1039f0:	66 90                	xchg   %ax,%ax
  1039f2:	66 90                	xchg   %ax,%ax
  1039f4:	66 90                	xchg   %ax,%ax
  1039f6:	66 90                	xchg   %ax,%ax
  1039f8:	66 90                	xchg   %ax,%ax
  1039fa:	66 90                	xchg   %ax,%ax
  1039fc:	66 90                	xchg   %ax,%ax
  1039fe:	66 90                	xchg   %ax,%ax
  103a00:	66 90                	xchg   %ax,%ax
  103a02:	66 90                	xchg   %ax,%ax
  103a04:	66 90                	xchg   %ax,%ax
  103a06:	66 90                	xchg   %ax,%ax
  103a08:	66 90                	xchg   %ax,%ax
  103a0a:	66 90                	xchg   %ax,%ax
  103a0c:	66 90                	xchg   %ax,%ax
  103a0e:	66 90                	xchg   %ax,%ax
  103a10:	66 90                	xchg   %ax,%ax
  103a12:	66 90                	xchg   %ax,%ax
  103a14:	66 90                	xchg   %ax,%ax
  103a16:	66 90                	xchg   %ax,%ax
  103a18:	66 90                	xchg   %ax,%ax
  103a1a:	66 90                	xchg   %ax,%ax
  103a1c:	66 90                	xchg   %ax,%ax
  103a1e:	66 90                	xchg   %ax,%ax
  103a20:	66 90                	xchg   %ax,%ax
  103a22:	66 90                	xchg   %ax,%ax
  103a24:	66 90                	xchg   %ax,%ax
  103a26:	66 90                	xchg   %ax,%ax
  103a28:	66 90                	xchg   %ax,%ax
  103a2a:	66 90                	xchg   %ax,%ax
  103a2c:	66 90                	xchg   %ax,%ax
  103a2e:	66 90                	xchg   %ax,%ax
  103a30:	66 90                	xchg   %ax,%ax
  103a32:	66 90                	xchg   %ax,%ax
  103a34:	66 90                	xchg   %ax,%ax
  103a36:	66 90                	xchg   %ax,%ax
  103a38:	66 90                	xchg   %ax,%ax
  103a3a:	66 90                	xchg   %ax,%ax
  103a3c:	66 90                	xchg   %ax,%ax
  103a3e:	66 90                	xchg   %ax,%ax
  103a40:	66 90                	xchg   %ax,%ax
  103a42:	66 90                	xchg   %ax,%ax
  103a44:	66 90                	xchg   %ax,%ax
  103a46:	66 90                	xchg   %ax,%ax
  103a48:	66 90                	xchg   %ax,%ax
  103a4a:	66 90                	xchg   %ax,%ax
  103a4c:	66 90                	xchg   %ax,%ax
  103a4e:	66 90                	xchg   %ax,%ax
  103a50:	66 90                	xchg   %ax,%ax
  103a52:	66 90                	xchg   %ax,%ax
  103a54:	66 90                	xchg   %ax,%ax
  103a56:	66 90                	xchg   %ax,%ax
  103a58:	66 90                	xchg   %ax,%ax
  103a5a:	66 90                	xchg   %ax,%ax
  103a5c:	66 90                	xchg   %ax,%ax
  103a5e:	66 90                	xchg   %ax,%ax
  103a60:	66 90                	xchg   %ax,%ax
  103a62:	66 90                	xchg   %ax,%ax
  103a64:	66 90                	xchg   %ax,%ax
  103a66:	66 90                	xchg   %ax,%ax
  103a68:	66 90                	xchg   %ax,%ax
  103a6a:	66 90                	xchg   %ax,%ax
  103a6c:	66 90                	xchg   %ax,%ax
  103a6e:	66 90                	xchg   %ax,%ax
  103a70:	66 90                	xchg   %ax,%ax
  103a72:	66 90                	xchg   %ax,%ax
  103a74:	66 90                	xchg   %ax,%ax
  103a76:	66 90                	xchg   %ax,%ax
  103a78:	66 90                	xchg   %ax,%ax
  103a7a:	66 90                	xchg   %ax,%ax
  103a7c:	66 90                	xchg   %ax,%ax
  103a7e:	66 90                	xchg   %ax,%ax
  103a80:	66 90                	xchg   %ax,%ax
  103a82:	66 90                	xchg   %ax,%ax
  103a84:	66 90                	xchg   %ax,%ax
  103a86:	66 90                	xchg   %ax,%ax
  103a88:	66 90                	xchg   %ax,%ax
  103a8a:	66 90                	xchg   %ax,%ax
  103a8c:	66 90                	xchg   %ax,%ax
  103a8e:	66 90                	xchg   %ax,%ax
  103a90:	66 90                	xchg   %ax,%ax
  103a92:	66 90                	xchg   %ax,%ax
  103a94:	66 90                	xchg   %ax,%ax
  103a96:	66 90                	xchg   %ax,%ax
  103a98:	66 90                	xchg   %ax,%ax
  103a9a:	66 90                	xchg   %ax,%ax
  103a9c:	66 90                	xchg   %ax,%ax
  103a9e:	66 90                	xchg   %ax,%ax
  103aa0:	66 90                	xchg   %ax,%ax
  103aa2:	66 90                	xchg   %ax,%ax
  103aa4:	66 90                	xchg   %ax,%ax
  103aa6:	66 90                	xchg   %ax,%ax
  103aa8:	66 90                	xchg   %ax,%ax
  103aaa:	66 90                	xchg   %ax,%ax
  103aac:	66 90                	xchg   %ax,%ax
  103aae:	66 90                	xchg   %ax,%ax
  103ab0:	66 90                	xchg   %ax,%ax
  103ab2:	66 90                	xchg   %ax,%ax
  103ab4:	66 90                	xchg   %ax,%ax
  103ab6:	66 90                	xchg   %ax,%ax
  103ab8:	66 90                	xchg   %ax,%ax
  103aba:	66 90                	xchg   %ax,%ax
  103abc:	66 90                	xchg   %ax,%ax
  103abe:	66 90                	xchg   %ax,%ax
  103ac0:	66 90                	xchg   %ax,%ax
  103ac2:	66 90                	xchg   %ax,%ax
  103ac4:	66 90                	xchg   %ax,%ax
  103ac6:	66 90                	xchg   %ax,%ax
  103ac8:	66 90                	xchg   %ax,%ax
  103aca:	66 90                	xchg   %ax,%ax
  103acc:	66 90                	xchg   %ax,%ax
  103ace:	66 90                	xchg   %ax,%ax
  103ad0:	66 90                	xchg   %ax,%ax
  103ad2:	66 90                	xchg   %ax,%ax
  103ad4:	66 90                	xchg   %ax,%ax
  103ad6:	66 90                	xchg   %ax,%ax
  103ad8:	66 90                	xchg   %ax,%ax
  103ada:	66 90                	xchg   %ax,%ax
  103adc:	66 90                	xchg   %ax,%ax
  103ade:	66 90                	xchg   %ax,%ax
  103ae0:	66 90                	xchg   %ax,%ax
  103ae2:	66 90                	xchg   %ax,%ax
  103ae4:	66 90                	xchg   %ax,%ax
  103ae6:	66 90                	xchg   %ax,%ax
  103ae8:	66 90                	xchg   %ax,%ax
  103aea:	66 90                	xchg   %ax,%ax
  103aec:	66 90                	xchg   %ax,%ax
  103aee:	66 90                	xchg   %ax,%ax
  103af0:	66 90                	xchg   %ax,%ax
  103af2:	66 90                	xchg   %ax,%ax
  103af4:	66 90                	xchg   %ax,%ax
  103af6:	66 90                	xchg   %ax,%ax
  103af8:	66 90                	xchg   %ax,%ax
  103afa:	66 90                	xchg   %ax,%ax
  103afc:	66 90                	xchg   %ax,%ax
  103afe:	66 90                	xchg   %ax,%ax
  103b00:	66 90                	xchg   %ax,%ax
  103b02:	66 90                	xchg   %ax,%ax
  103b04:	66 90                	xchg   %ax,%ax
  103b06:	66 90                	xchg   %ax,%ax
  103b08:	66 90                	xchg   %ax,%ax
  103b0a:	66 90                	xchg   %ax,%ax
  103b0c:	66 90                	xchg   %ax,%ax
  103b0e:	66 90                	xchg   %ax,%ax
  103b10:	66 90                	xchg   %ax,%ax
  103b12:	66 90                	xchg   %ax,%ax
  103b14:	66 90                	xchg   %ax,%ax
  103b16:	66 90                	xchg   %ax,%ax
  103b18:	66 90                	xchg   %ax,%ax
  103b1a:	66 90                	xchg   %ax,%ax
  103b1c:	66 90                	xchg   %ax,%ax
  103b1e:	66 90                	xchg   %ax,%ax
  103b20:	66 90                	xchg   %ax,%ax
  103b22:	66 90                	xchg   %ax,%ax
  103b24:	66 90                	xchg   %ax,%ax
  103b26:	66 90                	xchg   %ax,%ax
  103b28:	66 90                	xchg   %ax,%ax
  103b2a:	66 90                	xchg   %ax,%ax
  103b2c:	66 90                	xchg   %ax,%ax
  103b2e:	66 90                	xchg   %ax,%ax
  103b30:	66 90                	xchg   %ax,%ax
  103b32:	66 90                	xchg   %ax,%ax
  103b34:	66 90                	xchg   %ax,%ax
  103b36:	66 90                	xchg   %ax,%ax
  103b38:	66 90                	xchg   %ax,%ax
  103b3a:	66 90                	xchg   %ax,%ax
  103b3c:	66 90                	xchg   %ax,%ax
  103b3e:	66 90                	xchg   %ax,%ax
  103b40:	66 90                	xchg   %ax,%ax
  103b42:	66 90                	xchg   %ax,%ax
  103b44:	66 90                	xchg   %ax,%ax
  103b46:	66 90                	xchg   %ax,%ax
  103b48:	66 90                	xchg   %ax,%ax
  103b4a:	66 90                	xchg   %ax,%ax
  103b4c:	66 90                	xchg   %ax,%ax
  103b4e:	66 90                	xchg   %ax,%ax
  103b50:	66 90                	xchg   %ax,%ax
  103b52:	66 90                	xchg   %ax,%ax
  103b54:	66 90                	xchg   %ax,%ax
  103b56:	66 90                	xchg   %ax,%ax
  103b58:	66 90                	xchg   %ax,%ax
  103b5a:	66 90                	xchg   %ax,%ax
  103b5c:	66 90                	xchg   %ax,%ax
  103b5e:	66 90                	xchg   %ax,%ax
  103b60:	66 90                	xchg   %ax,%ax
  103b62:	66 90                	xchg   %ax,%ax
  103b64:	66 90                	xchg   %ax,%ax
  103b66:	66 90                	xchg   %ax,%ax
  103b68:	66 90                	xchg   %ax,%ax
  103b6a:	66 90                	xchg   %ax,%ax
  103b6c:	66 90                	xchg   %ax,%ax
  103b6e:	66 90                	xchg   %ax,%ax
  103b70:	66 90                	xchg   %ax,%ax
  103b72:	66 90                	xchg   %ax,%ax
  103b74:	66 90                	xchg   %ax,%ax
  103b76:	66 90                	xchg   %ax,%ax
  103b78:	66 90                	xchg   %ax,%ax
  103b7a:	66 90                	xchg   %ax,%ax
  103b7c:	66 90                	xchg   %ax,%ax
  103b7e:	66 90                	xchg   %ax,%ax
  103b80:	66 90                	xchg   %ax,%ax
  103b82:	66 90                	xchg   %ax,%ax
  103b84:	66 90                	xchg   %ax,%ax
  103b86:	66 90                	xchg   %ax,%ax
  103b88:	66 90                	xchg   %ax,%ax
  103b8a:	66 90                	xchg   %ax,%ax
  103b8c:	66 90                	xchg   %ax,%ax
  103b8e:	66 90                	xchg   %ax,%ax
  103b90:	66 90                	xchg   %ax,%ax
  103b92:	66 90                	xchg   %ax,%ax
  103b94:	66 90                	xchg   %ax,%ax
  103b96:	66 90                	xchg   %ax,%ax
  103b98:	66 90                	xchg   %ax,%ax
  103b9a:	66 90                	xchg   %ax,%ax
  103b9c:	66 90                	xchg   %ax,%ax
  103b9e:	66 90                	xchg   %ax,%ax
  103ba0:	66 90                	xchg   %ax,%ax
  103ba2:	66 90                	xchg   %ax,%ax
  103ba4:	66 90                	xchg   %ax,%ax
  103ba6:	66 90                	xchg   %ax,%ax
  103ba8:	66 90                	xchg   %ax,%ax
  103baa:	66 90                	xchg   %ax,%ax
  103bac:	66 90                	xchg   %ax,%ax
  103bae:	66 90                	xchg   %ax,%ax
  103bb0:	66 90                	xchg   %ax,%ax
  103bb2:	66 90                	xchg   %ax,%ax
  103bb4:	66 90                	xchg   %ax,%ax
  103bb6:	66 90                	xchg   %ax,%ax
  103bb8:	66 90                	xchg   %ax,%ax
  103bba:	66 90                	xchg   %ax,%ax
  103bbc:	66 90                	xchg   %ax,%ax
  103bbe:	66 90                	xchg   %ax,%ax
  103bc0:	66 90                	xchg   %ax,%ax
  103bc2:	66 90                	xchg   %ax,%ax
  103bc4:	66 90                	xchg   %ax,%ax
  103bc6:	66 90                	xchg   %ax,%ax
  103bc8:	66 90                	xchg   %ax,%ax
  103bca:	66 90                	xchg   %ax,%ax
  103bcc:	66 90                	xchg   %ax,%ax
  103bce:	66 90                	xchg   %ax,%ax
  103bd0:	66 90                	xchg   %ax,%ax
  103bd2:	66 90                	xchg   %ax,%ax
  103bd4:	66 90                	xchg   %ax,%ax
  103bd6:	66 90                	xchg   %ax,%ax
  103bd8:	66 90                	xchg   %ax,%ax
  103bda:	66 90                	xchg   %ax,%ax
  103bdc:	66 90                	xchg   %ax,%ax
  103bde:	66 90                	xchg   %ax,%ax
  103be0:	66 90                	xchg   %ax,%ax
  103be2:	66 90                	xchg   %ax,%ax
  103be4:	66 90                	xchg   %ax,%ax
  103be6:	66 90                	xchg   %ax,%ax
  103be8:	66 90                	xchg   %ax,%ax
  103bea:	66 90                	xchg   %ax,%ax
  103bec:	66 90                	xchg   %ax,%ax
  103bee:	66 90                	xchg   %ax,%ax
  103bf0:	66 90                	xchg   %ax,%ax
  103bf2:	66 90                	xchg   %ax,%ax
  103bf4:	66 90                	xchg   %ax,%ax
  103bf6:	66 90                	xchg   %ax,%ax
  103bf8:	66 90                	xchg   %ax,%ax
  103bfa:	66 90                	xchg   %ax,%ax
  103bfc:	66 90                	xchg   %ax,%ax
  103bfe:	66 90                	xchg   %ax,%ax
  103c00:	66 90                	xchg   %ax,%ax
  103c02:	66 90                	xchg   %ax,%ax
  103c04:	66 90                	xchg   %ax,%ax
  103c06:	66 90                	xchg   %ax,%ax
  103c08:	66 90                	xchg   %ax,%ax
  103c0a:	66 90                	xchg   %ax,%ax
  103c0c:	66 90                	xchg   %ax,%ax
  103c0e:	66 90                	xchg   %ax,%ax
  103c10:	66 90                	xchg   %ax,%ax
  103c12:	66 90                	xchg   %ax,%ax
  103c14:	66 90                	xchg   %ax,%ax
  103c16:	66 90                	xchg   %ax,%ax
  103c18:	66 90                	xchg   %ax,%ax
  103c1a:	66 90                	xchg   %ax,%ax
  103c1c:	66 90                	xchg   %ax,%ax
  103c1e:	66 90                	xchg   %ax,%ax
  103c20:	66 90                	xchg   %ax,%ax
  103c22:	66 90                	xchg   %ax,%ax
  103c24:	66 90                	xchg   %ax,%ax
  103c26:	66 90                	xchg   %ax,%ax
  103c28:	66 90                	xchg   %ax,%ax
  103c2a:	66 90                	xchg   %ax,%ax
  103c2c:	66 90                	xchg   %ax,%ax
  103c2e:	66 90                	xchg   %ax,%ax
  103c30:	66 90                	xchg   %ax,%ax
  103c32:	66 90                	xchg   %ax,%ax
  103c34:	66 90                	xchg   %ax,%ax
  103c36:	66 90                	xchg   %ax,%ax
  103c38:	66 90                	xchg   %ax,%ax
  103c3a:	66 90                	xchg   %ax,%ax
  103c3c:	66 90                	xchg   %ax,%ax
  103c3e:	66 90                	xchg   %ax,%ax
  103c40:	66 90                	xchg   %ax,%ax
  103c42:	66 90                	xchg   %ax,%ax
  103c44:	66 90                	xchg   %ax,%ax
  103c46:	66 90                	xchg   %ax,%ax
  103c48:	66 90                	xchg   %ax,%ax
  103c4a:	66 90                	xchg   %ax,%ax
  103c4c:	66 90                	xchg   %ax,%ax
  103c4e:	66 90                	xchg   %ax,%ax
  103c50:	66 90                	xchg   %ax,%ax
  103c52:	66 90                	xchg   %ax,%ax
  103c54:	66 90                	xchg   %ax,%ax
  103c56:	66 90                	xchg   %ax,%ax
  103c58:	66 90                	xchg   %ax,%ax
  103c5a:	66 90                	xchg   %ax,%ax
  103c5c:	66 90                	xchg   %ax,%ax
  103c5e:	66 90                	xchg   %ax,%ax
  103c60:	66 90                	xchg   %ax,%ax
  103c62:	66 90                	xchg   %ax,%ax
  103c64:	66 90                	xchg   %ax,%ax
  103c66:	66 90                	xchg   %ax,%ax
  103c68:	66 90                	xchg   %ax,%ax
  103c6a:	66 90                	xchg   %ax,%ax
  103c6c:	66 90                	xchg   %ax,%ax
  103c6e:	66 90                	xchg   %ax,%ax
  103c70:	66 90                	xchg   %ax,%ax
  103c72:	66 90                	xchg   %ax,%ax
  103c74:	66 90                	xchg   %ax,%ax
  103c76:	66 90                	xchg   %ax,%ax
  103c78:	66 90                	xchg   %ax,%ax
  103c7a:	66 90                	xchg   %ax,%ax
  103c7c:	66 90                	xchg   %ax,%ax
  103c7e:	66 90                	xchg   %ax,%ax
  103c80:	66 90                	xchg   %ax,%ax
  103c82:	66 90                	xchg   %ax,%ax
  103c84:	66 90                	xchg   %ax,%ax
  103c86:	66 90                	xchg   %ax,%ax
  103c88:	66 90                	xchg   %ax,%ax
  103c8a:	66 90                	xchg   %ax,%ax
  103c8c:	66 90                	xchg   %ax,%ax
  103c8e:	66 90                	xchg   %ax,%ax
  103c90:	66 90                	xchg   %ax,%ax
  103c92:	66 90                	xchg   %ax,%ax
  103c94:	66 90                	xchg   %ax,%ax
  103c96:	66 90                	xchg   %ax,%ax
  103c98:	66 90                	xchg   %ax,%ax
  103c9a:	66 90                	xchg   %ax,%ax
  103c9c:	66 90                	xchg   %ax,%ax
  103c9e:	66 90                	xchg   %ax,%ax
  103ca0:	66 90                	xchg   %ax,%ax
  103ca2:	66 90                	xchg   %ax,%ax
  103ca4:	66 90                	xchg   %ax,%ax
  103ca6:	66 90                	xchg   %ax,%ax
  103ca8:	66 90                	xchg   %ax,%ax
  103caa:	66 90                	xchg   %ax,%ax
  103cac:	66 90                	xchg   %ax,%ax
  103cae:	66 90                	xchg   %ax,%ax
  103cb0:	66 90                	xchg   %ax,%ax
  103cb2:	66 90                	xchg   %ax,%ax
  103cb4:	66 90                	xchg   %ax,%ax
  103cb6:	66 90                	xchg   %ax,%ax
  103cb8:	66 90                	xchg   %ax,%ax
  103cba:	66 90                	xchg   %ax,%ax
  103cbc:	66 90                	xchg   %ax,%ax
  103cbe:	66 90                	xchg   %ax,%ax
  103cc0:	66 90                	xchg   %ax,%ax
  103cc2:	66 90                	xchg   %ax,%ax
  103cc4:	66 90                	xchg   %ax,%ax
  103cc6:	66 90                	xchg   %ax,%ax
  103cc8:	66 90                	xchg   %ax,%ax
  103cca:	66 90                	xchg   %ax,%ax
  103ccc:	66 90                	xchg   %ax,%ax
  103cce:	66 90                	xchg   %ax,%ax
  103cd0:	66 90                	xchg   %ax,%ax
  103cd2:	66 90                	xchg   %ax,%ax
  103cd4:	66 90                	xchg   %ax,%ax
  103cd6:	66 90                	xchg   %ax,%ax
  103cd8:	66 90                	xchg   %ax,%ax
  103cda:	66 90                	xchg   %ax,%ax
  103cdc:	66 90                	xchg   %ax,%ax
  103cde:	66 90                	xchg   %ax,%ax
  103ce0:	66 90                	xchg   %ax,%ax
  103ce2:	66 90                	xchg   %ax,%ax
  103ce4:	66 90                	xchg   %ax,%ax
  103ce6:	66 90                	xchg   %ax,%ax
  103ce8:	66 90                	xchg   %ax,%ax
  103cea:	66 90                	xchg   %ax,%ax
  103cec:	66 90                	xchg   %ax,%ax
  103cee:	66 90                	xchg   %ax,%ax
  103cf0:	66 90                	xchg   %ax,%ax
  103cf2:	66 90                	xchg   %ax,%ax
  103cf4:	66 90                	xchg   %ax,%ax
  103cf6:	66 90                	xchg   %ax,%ax
  103cf8:	66 90                	xchg   %ax,%ax
  103cfa:	66 90                	xchg   %ax,%ax
  103cfc:	66 90                	xchg   %ax,%ax
  103cfe:	66 90                	xchg   %ax,%ax
  103d00:	66 90                	xchg   %ax,%ax
  103d02:	66 90                	xchg   %ax,%ax
  103d04:	66 90                	xchg   %ax,%ax
  103d06:	66 90                	xchg   %ax,%ax
  103d08:	66 90                	xchg   %ax,%ax
  103d0a:	66 90                	xchg   %ax,%ax
  103d0c:	66 90                	xchg   %ax,%ax
  103d0e:	66 90                	xchg   %ax,%ax
  103d10:	66 90                	xchg   %ax,%ax
  103d12:	66 90                	xchg   %ax,%ax
  103d14:	66 90                	xchg   %ax,%ax
  103d16:	66 90                	xchg   %ax,%ax
  103d18:	66 90                	xchg   %ax,%ax
  103d1a:	66 90                	xchg   %ax,%ax
  103d1c:	66 90                	xchg   %ax,%ax
  103d1e:	66 90                	xchg   %ax,%ax
  103d20:	66 90                	xchg   %ax,%ax
  103d22:	66 90                	xchg   %ax,%ax
  103d24:	66 90                	xchg   %ax,%ax
  103d26:	66 90                	xchg   %ax,%ax
  103d28:	66 90                	xchg   %ax,%ax
  103d2a:	66 90                	xchg   %ax,%ax
  103d2c:	66 90                	xchg   %ax,%ax
  103d2e:	66 90                	xchg   %ax,%ax
  103d30:	66 90                	xchg   %ax,%ax
  103d32:	66 90                	xchg   %ax,%ax
  103d34:	66 90                	xchg   %ax,%ax
  103d36:	66 90                	xchg   %ax,%ax
  103d38:	66 90                	xchg   %ax,%ax
  103d3a:	66 90                	xchg   %ax,%ax
  103d3c:	66 90                	xchg   %ax,%ax
  103d3e:	66 90                	xchg   %ax,%ax
  103d40:	66 90                	xchg   %ax,%ax
  103d42:	66 90                	xchg   %ax,%ax
  103d44:	66 90                	xchg   %ax,%ax
  103d46:	66 90                	xchg   %ax,%ax
  103d48:	66 90                	xchg   %ax,%ax
  103d4a:	66 90                	xchg   %ax,%ax
  103d4c:	66 90                	xchg   %ax,%ax
  103d4e:	66 90                	xchg   %ax,%ax
  103d50:	66 90                	xchg   %ax,%ax
  103d52:	66 90                	xchg   %ax,%ax
  103d54:	66 90                	xchg   %ax,%ax
  103d56:	66 90                	xchg   %ax,%ax
  103d58:	66 90                	xchg   %ax,%ax
  103d5a:	66 90                	xchg   %ax,%ax
  103d5c:	66 90                	xchg   %ax,%ax
  103d5e:	66 90                	xchg   %ax,%ax
  103d60:	66 90                	xchg   %ax,%ax
  103d62:	66 90                	xchg   %ax,%ax
  103d64:	66 90                	xchg   %ax,%ax
  103d66:	66 90                	xchg   %ax,%ax
  103d68:	66 90                	xchg   %ax,%ax
  103d6a:	66 90                	xchg   %ax,%ax
  103d6c:	66 90                	xchg   %ax,%ax
  103d6e:	66 90                	xchg   %ax,%ax
  103d70:	66 90                	xchg   %ax,%ax
  103d72:	66 90                	xchg   %ax,%ax
  103d74:	66 90                	xchg   %ax,%ax
  103d76:	66 90                	xchg   %ax,%ax
  103d78:	66 90                	xchg   %ax,%ax
  103d7a:	66 90                	xchg   %ax,%ax
  103d7c:	66 90                	xchg   %ax,%ax
  103d7e:	66 90                	xchg   %ax,%ax
  103d80:	66 90                	xchg   %ax,%ax
  103d82:	66 90                	xchg   %ax,%ax
  103d84:	66 90                	xchg   %ax,%ax
  103d86:	66 90                	xchg   %ax,%ax
  103d88:	66 90                	xchg   %ax,%ax
  103d8a:	66 90                	xchg   %ax,%ax
  103d8c:	66 90                	xchg   %ax,%ax
  103d8e:	66 90                	xchg   %ax,%ax
  103d90:	66 90                	xchg   %ax,%ax
  103d92:	66 90                	xchg   %ax,%ax
  103d94:	66 90                	xchg   %ax,%ax
  103d96:	66 90                	xchg   %ax,%ax
  103d98:	66 90                	xchg   %ax,%ax
  103d9a:	66 90                	xchg   %ax,%ax
  103d9c:	66 90                	xchg   %ax,%ax
  103d9e:	66 90                	xchg   %ax,%ax
  103da0:	66 90                	xchg   %ax,%ax
  103da2:	66 90                	xchg   %ax,%ax
  103da4:	66 90                	xchg   %ax,%ax
  103da6:	66 90                	xchg   %ax,%ax
  103da8:	66 90                	xchg   %ax,%ax
  103daa:	66 90                	xchg   %ax,%ax
  103dac:	66 90                	xchg   %ax,%ax
  103dae:	66 90                	xchg   %ax,%ax
  103db0:	66 90                	xchg   %ax,%ax
  103db2:	66 90                	xchg   %ax,%ax
  103db4:	66 90                	xchg   %ax,%ax
  103db6:	66 90                	xchg   %ax,%ax
  103db8:	66 90                	xchg   %ax,%ax
  103dba:	66 90                	xchg   %ax,%ax
  103dbc:	66 90                	xchg   %ax,%ax
  103dbe:	66 90                	xchg   %ax,%ax
  103dc0:	66 90                	xchg   %ax,%ax
  103dc2:	66 90                	xchg   %ax,%ax
  103dc4:	66 90                	xchg   %ax,%ax
  103dc6:	66 90                	xchg   %ax,%ax
  103dc8:	66 90                	xchg   %ax,%ax
  103dca:	66 90                	xchg   %ax,%ax
  103dcc:	66 90                	xchg   %ax,%ax
  103dce:	66 90                	xchg   %ax,%ax
  103dd0:	66 90                	xchg   %ax,%ax
  103dd2:	66 90                	xchg   %ax,%ax
  103dd4:	66 90                	xchg   %ax,%ax
  103dd6:	66 90                	xchg   %ax,%ax
  103dd8:	66 90                	xchg   %ax,%ax
  103dda:	66 90                	xchg   %ax,%ax
  103ddc:	66 90                	xchg   %ax,%ax
  103dde:	66 90                	xchg   %ax,%ax
  103de0:	66 90                	xchg   %ax,%ax
  103de2:	66 90                	xchg   %ax,%ax
  103de4:	66 90                	xchg   %ax,%ax
  103de6:	66 90                	xchg   %ax,%ax
  103de8:	66 90                	xchg   %ax,%ax
  103dea:	66 90                	xchg   %ax,%ax
  103dec:	66 90                	xchg   %ax,%ax
  103dee:	66 90                	xchg   %ax,%ax
  103df0:	66 90                	xchg   %ax,%ax
  103df2:	66 90                	xchg   %ax,%ax
  103df4:	66 90                	xchg   %ax,%ax
  103df6:	66 90                	xchg   %ax,%ax
  103df8:	66 90                	xchg   %ax,%ax
  103dfa:	66 90                	xchg   %ax,%ax
  103dfc:	66 90                	xchg   %ax,%ax
  103dfe:	66 90                	xchg   %ax,%ax
  103e00:	66 90                	xchg   %ax,%ax
  103e02:	66 90                	xchg   %ax,%ax
  103e04:	66 90                	xchg   %ax,%ax
  103e06:	66 90                	xchg   %ax,%ax
  103e08:	66 90                	xchg   %ax,%ax
  103e0a:	66 90                	xchg   %ax,%ax
  103e0c:	66 90                	xchg   %ax,%ax
  103e0e:	66 90                	xchg   %ax,%ax
  103e10:	66 90                	xchg   %ax,%ax
  103e12:	66 90                	xchg   %ax,%ax
  103e14:	66 90                	xchg   %ax,%ax
  103e16:	66 90                	xchg   %ax,%ax
  103e18:	66 90                	xchg   %ax,%ax
  103e1a:	66 90                	xchg   %ax,%ax
  103e1c:	66 90                	xchg   %ax,%ax
  103e1e:	66 90                	xchg   %ax,%ax
  103e20:	66 90                	xchg   %ax,%ax
  103e22:	66 90                	xchg   %ax,%ax
  103e24:	66 90                	xchg   %ax,%ax
  103e26:	66 90                	xchg   %ax,%ax
  103e28:	66 90                	xchg   %ax,%ax
  103e2a:	66 90                	xchg   %ax,%ax
  103e2c:	66 90                	xchg   %ax,%ax
  103e2e:	66 90                	xchg   %ax,%ax
  103e30:	66 90                	xchg   %ax,%ax
  103e32:	66 90                	xchg   %ax,%ax
  103e34:	66 90                	xchg   %ax,%ax
  103e36:	66 90                	xchg   %ax,%ax
  103e38:	66 90                	xchg   %ax,%ax
  103e3a:	66 90                	xchg   %ax,%ax
  103e3c:	66 90                	xchg   %ax,%ax
  103e3e:	66 90                	xchg   %ax,%ax
  103e40:	66 90                	xchg   %ax,%ax
  103e42:	66 90                	xchg   %ax,%ax
  103e44:	66 90                	xchg   %ax,%ax
  103e46:	66 90                	xchg   %ax,%ax
  103e48:	66 90                	xchg   %ax,%ax
  103e4a:	66 90                	xchg   %ax,%ax
  103e4c:	66 90                	xchg   %ax,%ax
  103e4e:	66 90                	xchg   %ax,%ax
  103e50:	66 90                	xchg   %ax,%ax
  103e52:	66 90                	xchg   %ax,%ax
  103e54:	66 90                	xchg   %ax,%ax
  103e56:	66 90                	xchg   %ax,%ax
  103e58:	66 90                	xchg   %ax,%ax
  103e5a:	66 90                	xchg   %ax,%ax
  103e5c:	66 90                	xchg   %ax,%ax
  103e5e:	66 90                	xchg   %ax,%ax
  103e60:	66 90                	xchg   %ax,%ax
  103e62:	66 90                	xchg   %ax,%ax
  103e64:	66 90                	xchg   %ax,%ax
  103e66:	66 90                	xchg   %ax,%ax
  103e68:	66 90                	xchg   %ax,%ax
  103e6a:	66 90                	xchg   %ax,%ax
  103e6c:	66 90                	xchg   %ax,%ax
  103e6e:	66 90                	xchg   %ax,%ax
  103e70:	66 90                	xchg   %ax,%ax
  103e72:	66 90                	xchg   %ax,%ax
  103e74:	66 90                	xchg   %ax,%ax
  103e76:	66 90                	xchg   %ax,%ax
  103e78:	66 90                	xchg   %ax,%ax
  103e7a:	66 90                	xchg   %ax,%ax
  103e7c:	66 90                	xchg   %ax,%ax
  103e7e:	66 90                	xchg   %ax,%ax
  103e80:	66 90                	xchg   %ax,%ax
  103e82:	66 90                	xchg   %ax,%ax
  103e84:	66 90                	xchg   %ax,%ax
  103e86:	66 90                	xchg   %ax,%ax
  103e88:	66 90                	xchg   %ax,%ax
  103e8a:	66 90                	xchg   %ax,%ax
  103e8c:	66 90                	xchg   %ax,%ax
  103e8e:	66 90                	xchg   %ax,%ax
  103e90:	66 90                	xchg   %ax,%ax
  103e92:	66 90                	xchg   %ax,%ax
  103e94:	66 90                	xchg   %ax,%ax
  103e96:	66 90                	xchg   %ax,%ax
  103e98:	66 90                	xchg   %ax,%ax
  103e9a:	66 90                	xchg   %ax,%ax
  103e9c:	66 90                	xchg   %ax,%ax
  103e9e:	66 90                	xchg   %ax,%ax
  103ea0:	66 90                	xchg   %ax,%ax
  103ea2:	66 90                	xchg   %ax,%ax
  103ea4:	66 90                	xchg   %ax,%ax
  103ea6:	66 90                	xchg   %ax,%ax
  103ea8:	66 90                	xchg   %ax,%ax
  103eaa:	66 90                	xchg   %ax,%ax
  103eac:	66 90                	xchg   %ax,%ax
  103eae:	66 90                	xchg   %ax,%ax
  103eb0:	66 90                	xchg   %ax,%ax
  103eb2:	66 90                	xchg   %ax,%ax
  103eb4:	66 90                	xchg   %ax,%ax
  103eb6:	66 90                	xchg   %ax,%ax
  103eb8:	66 90                	xchg   %ax,%ax
  103eba:	66 90                	xchg   %ax,%ax
  103ebc:	66 90                	xchg   %ax,%ax
  103ebe:	66 90                	xchg   %ax,%ax
  103ec0:	66 90                	xchg   %ax,%ax
  103ec2:	66 90                	xchg   %ax,%ax
  103ec4:	66 90                	xchg   %ax,%ax
  103ec6:	66 90                	xchg   %ax,%ax
  103ec8:	66 90                	xchg   %ax,%ax
  103eca:	66 90                	xchg   %ax,%ax
  103ecc:	66 90                	xchg   %ax,%ax
  103ece:	66 90                	xchg   %ax,%ax
  103ed0:	66 90                	xchg   %ax,%ax
  103ed2:	66 90                	xchg   %ax,%ax
  103ed4:	66 90                	xchg   %ax,%ax
  103ed6:	66 90                	xchg   %ax,%ax
  103ed8:	66 90                	xchg   %ax,%ax
  103eda:	66 90                	xchg   %ax,%ax
  103edc:	66 90                	xchg   %ax,%ax
  103ede:	66 90                	xchg   %ax,%ax
  103ee0:	66 90                	xchg   %ax,%ax
  103ee2:	66 90                	xchg   %ax,%ax
  103ee4:	66 90                	xchg   %ax,%ax
  103ee6:	66 90                	xchg   %ax,%ax
  103ee8:	66 90                	xchg   %ax,%ax
  103eea:	66 90                	xchg   %ax,%ax
  103eec:	66 90                	xchg   %ax,%ax
  103eee:	66 90                	xchg   %ax,%ax
  103ef0:	66 90                	xchg   %ax,%ax
  103ef2:	66 90                	xchg   %ax,%ax
  103ef4:	66 90                	xchg   %ax,%ax
  103ef6:	66 90                	xchg   %ax,%ax
  103ef8:	66 90                	xchg   %ax,%ax
  103efa:	66 90                	xchg   %ax,%ax
  103efc:	66 90                	xchg   %ax,%ax
  103efe:	66 90                	xchg   %ax,%ax
  103f00:	66 90                	xchg   %ax,%ax
  103f02:	66 90                	xchg   %ax,%ax
  103f04:	66 90                	xchg   %ax,%ax
  103f06:	66 90                	xchg   %ax,%ax
  103f08:	66 90                	xchg   %ax,%ax
  103f0a:	66 90                	xchg   %ax,%ax
  103f0c:	66 90                	xchg   %ax,%ax
  103f0e:	66 90                	xchg   %ax,%ax
  103f10:	66 90                	xchg   %ax,%ax
  103f12:	66 90                	xchg   %ax,%ax
  103f14:	66 90                	xchg   %ax,%ax
  103f16:	66 90                	xchg   %ax,%ax
  103f18:	66 90                	xchg   %ax,%ax
  103f1a:	66 90                	xchg   %ax,%ax
  103f1c:	66 90                	xchg   %ax,%ax
  103f1e:	66 90                	xchg   %ax,%ax
  103f20:	66 90                	xchg   %ax,%ax
  103f22:	66 90                	xchg   %ax,%ax
  103f24:	66 90                	xchg   %ax,%ax
  103f26:	66 90                	xchg   %ax,%ax
  103f28:	66 90                	xchg   %ax,%ax
  103f2a:	66 90                	xchg   %ax,%ax
  103f2c:	66 90                	xchg   %ax,%ax
  103f2e:	66 90                	xchg   %ax,%ax
  103f30:	66 90                	xchg   %ax,%ax
  103f32:	66 90                	xchg   %ax,%ax
  103f34:	66 90                	xchg   %ax,%ax
  103f36:	66 90                	xchg   %ax,%ax
  103f38:	66 90                	xchg   %ax,%ax
  103f3a:	66 90                	xchg   %ax,%ax
  103f3c:	66 90                	xchg   %ax,%ax
  103f3e:	66 90                	xchg   %ax,%ax
  103f40:	66 90                	xchg   %ax,%ax
  103f42:	66 90                	xchg   %ax,%ax
  103f44:	66 90                	xchg   %ax,%ax
  103f46:	66 90                	xchg   %ax,%ax
  103f48:	66 90                	xchg   %ax,%ax
  103f4a:	66 90                	xchg   %ax,%ax
  103f4c:	66 90                	xchg   %ax,%ax
  103f4e:	66 90                	xchg   %ax,%ax
  103f50:	66 90                	xchg   %ax,%ax
  103f52:	66 90                	xchg   %ax,%ax
  103f54:	66 90                	xchg   %ax,%ax
  103f56:	66 90                	xchg   %ax,%ax
  103f58:	66 90                	xchg   %ax,%ax
  103f5a:	66 90                	xchg   %ax,%ax
  103f5c:	66 90                	xchg   %ax,%ax
  103f5e:	66 90                	xchg   %ax,%ax
  103f60:	66 90                	xchg   %ax,%ax
  103f62:	66 90                	xchg   %ax,%ax
  103f64:	66 90                	xchg   %ax,%ax
  103f66:	66 90                	xchg   %ax,%ax
  103f68:	66 90                	xchg   %ax,%ax
  103f6a:	66 90                	xchg   %ax,%ax
  103f6c:	66 90                	xchg   %ax,%ax
  103f6e:	66 90                	xchg   %ax,%ax
  103f70:	66 90                	xchg   %ax,%ax
  103f72:	66 90                	xchg   %ax,%ax
  103f74:	66 90                	xchg   %ax,%ax
  103f76:	66 90                	xchg   %ax,%ax
  103f78:	66 90                	xchg   %ax,%ax
  103f7a:	66 90                	xchg   %ax,%ax
  103f7c:	66 90                	xchg   %ax,%ax
  103f7e:	66 90                	xchg   %ax,%ax
  103f80:	66 90                	xchg   %ax,%ax
  103f82:	66 90                	xchg   %ax,%ax
  103f84:	66 90                	xchg   %ax,%ax
  103f86:	66 90                	xchg   %ax,%ax
  103f88:	66 90                	xchg   %ax,%ax
  103f8a:	66 90                	xchg   %ax,%ax
  103f8c:	66 90                	xchg   %ax,%ax
  103f8e:	66 90                	xchg   %ax,%ax
  103f90:	66 90                	xchg   %ax,%ax
  103f92:	66 90                	xchg   %ax,%ax
  103f94:	66 90                	xchg   %ax,%ax
  103f96:	66 90                	xchg   %ax,%ax
  103f98:	66 90                	xchg   %ax,%ax
  103f9a:	66 90                	xchg   %ax,%ax
  103f9c:	66 90                	xchg   %ax,%ax
  103f9e:	66 90                	xchg   %ax,%ax
  103fa0:	66 90                	xchg   %ax,%ax
  103fa2:	66 90                	xchg   %ax,%ax
  103fa4:	66 90                	xchg   %ax,%ax
  103fa6:	66 90                	xchg   %ax,%ax
  103fa8:	66 90                	xchg   %ax,%ax
  103faa:	66 90                	xchg   %ax,%ax
  103fac:	66 90                	xchg   %ax,%ax
  103fae:	66 90                	xchg   %ax,%ax
  103fb0:	66 90                	xchg   %ax,%ax
  103fb2:	66 90                	xchg   %ax,%ax
  103fb4:	66 90                	xchg   %ax,%ax
  103fb6:	66 90                	xchg   %ax,%ax
  103fb8:	66 90                	xchg   %ax,%ax
  103fba:	66 90                	xchg   %ax,%ax
  103fbc:	66 90                	xchg   %ax,%ax
  103fbe:	66 90                	xchg   %ax,%ax
  103fc0:	66 90                	xchg   %ax,%ax
  103fc2:	66 90                	xchg   %ax,%ax
  103fc4:	66 90                	xchg   %ax,%ax
  103fc6:	66 90                	xchg   %ax,%ax
  103fc8:	66 90                	xchg   %ax,%ax
  103fca:	66 90                	xchg   %ax,%ax
  103fcc:	66 90                	xchg   %ax,%ax
  103fce:	66 90                	xchg   %ax,%ax
  103fd0:	66 90                	xchg   %ax,%ax
  103fd2:	66 90                	xchg   %ax,%ax
  103fd4:	66 90                	xchg   %ax,%ax
  103fd6:	66 90                	xchg   %ax,%ax
  103fd8:	66 90                	xchg   %ax,%ax
  103fda:	66 90                	xchg   %ax,%ax
  103fdc:	66 90                	xchg   %ax,%ax
  103fde:	66 90                	xchg   %ax,%ax
  103fe0:	66 90                	xchg   %ax,%ax
  103fe2:	66 90                	xchg   %ax,%ax
  103fe4:	66 90                	xchg   %ax,%ax
  103fe6:	66 90                	xchg   %ax,%ax
  103fe8:	66 90                	xchg   %ax,%ax
  103fea:	66 90                	xchg   %ax,%ax
  103fec:	66 90                	xchg   %ax,%ax
  103fee:	66 90                	xchg   %ax,%ax
  103ff0:	66 90                	xchg   %ax,%ax
  103ff2:	66 90                	xchg   %ax,%ax
  103ff4:	66 90                	xchg   %ax,%ax
  103ff6:	66 90                	xchg   %ax,%ax
  103ff8:	66 90                	xchg   %ax,%ax
  103ffa:	66 90                	xchg   %ax,%ax
  103ffc:	66 90                	xchg   %ax,%ax
  103ffe:	66 90                	xchg   %ax,%ax

Disassembly of section .text.__x86.get_pc_thunk.ax:

00104000 <__x86.get_pc_thunk.ax>:
  104000:	8b 04 24             	mov    (%esp),%eax
  104003:	c3                   	ret    

Disassembly of section .text.__x86.get_pc_thunk.bx:

00104004 <__x86.get_pc_thunk.bx>:
  104004:	8b 1c 24             	mov    (%esp),%ebx
  104007:	c3                   	ret    
