
kernel.elf：     文件格式 elf32-i386


Disassembly of section .text:

00100000 <isr0>:
  100000:	6a 00                	push   $0x0
  100002:	6a 00                	push   $0x0
  100004:	e9 d4 00 00 00       	jmp    1000dd <pre_handle>

00100009 <isr1>:
  100009:	6a 00                	push   $0x0
  10000b:	6a 01                	push   $0x1
  10000d:	e9 cb 00 00 00       	jmp    1000dd <pre_handle>

00100012 <isr2>:
  100012:	6a 00                	push   $0x0
  100014:	6a 02                	push   $0x2
  100016:	e9 c2 00 00 00       	jmp    1000dd <pre_handle>

0010001b <isr3>:
  10001b:	6a 00                	push   $0x0
  10001d:	6a 03                	push   $0x3
  10001f:	e9 b9 00 00 00       	jmp    1000dd <pre_handle>

00100024 <isr4>:
  100024:	6a 00                	push   $0x0
  100026:	6a 04                	push   $0x4
  100028:	e9 b0 00 00 00       	jmp    1000dd <pre_handle>

0010002d <isr5>:
  10002d:	6a 00                	push   $0x0
  10002f:	6a 05                	push   $0x5
  100031:	e9 a7 00 00 00       	jmp    1000dd <pre_handle>

00100036 <isr6>:
  100036:	6a 00                	push   $0x0
  100038:	6a 06                	push   $0x6
  10003a:	e9 9e 00 00 00       	jmp    1000dd <pre_handle>

0010003f <isr7>:
  10003f:	6a 00                	push   $0x0
  100041:	6a 07                	push   $0x7
  100043:	e9 95 00 00 00       	jmp    1000dd <pre_handle>

00100048 <isr8>:
  100048:	90                   	nop
  100049:	6a 08                	push   $0x8
  10004b:	e9 8d 00 00 00       	jmp    1000dd <pre_handle>

00100050 <isr9>:
  100050:	6a 00                	push   $0x0
  100052:	6a 09                	push   $0x9
  100054:	e9 84 00 00 00       	jmp    1000dd <pre_handle>

00100059 <isr10>:
  100059:	90                   	nop
  10005a:	6a 0a                	push   $0xa
  10005c:	eb 7f                	jmp    1000dd <pre_handle>

0010005e <isr11>:
  10005e:	90                   	nop
  10005f:	6a 0b                	push   $0xb
  100061:	eb 7a                	jmp    1000dd <pre_handle>

00100063 <isr12>:
  100063:	90                   	nop
  100064:	6a 0c                	push   $0xc
  100066:	eb 75                	jmp    1000dd <pre_handle>

00100068 <isr13>:
  100068:	90                   	nop
  100069:	6a 0d                	push   $0xd
  10006b:	eb 70                	jmp    1000dd <pre_handle>

0010006d <isr14>:
  10006d:	90                   	nop
  10006e:	6a 0e                	push   $0xe
  100070:	eb 6b                	jmp    1000dd <pre_handle>

00100072 <isr15>:
  100072:	6a 00                	push   $0x0
  100074:	6a 0f                	push   $0xf
  100076:	eb 65                	jmp    1000dd <pre_handle>

00100078 <isr16>:
  100078:	6a 00                	push   $0x0
  10007a:	6a 10                	push   $0x10
  10007c:	eb 5f                	jmp    1000dd <pre_handle>

0010007e <isr17>:
  10007e:	90                   	nop
  10007f:	6a 11                	push   $0x11
  100081:	eb 5a                	jmp    1000dd <pre_handle>

00100083 <isr18>:
  100083:	6a 00                	push   $0x0
  100085:	6a 12                	push   $0x12
  100087:	eb 54                	jmp    1000dd <pre_handle>

00100089 <isr19>:
  100089:	6a 00                	push   $0x0
  10008b:	6a 13                	push   $0x13
  10008d:	eb 4e                	jmp    1000dd <pre_handle>

0010008f <isr20>:
  10008f:	6a 00                	push   $0x0
  100091:	6a 14                	push   $0x14
  100093:	eb 48                	jmp    1000dd <pre_handle>

00100095 <isr21>:
  100095:	6a 00                	push   $0x0
  100097:	6a 15                	push   $0x15
  100099:	eb 42                	jmp    1000dd <pre_handle>

0010009b <isr22>:
  10009b:	6a 00                	push   $0x0
  10009d:	6a 16                	push   $0x16
  10009f:	eb 3c                	jmp    1000dd <pre_handle>

001000a1 <isr23>:
  1000a1:	6a 00                	push   $0x0
  1000a3:	6a 17                	push   $0x17
  1000a5:	eb 36                	jmp    1000dd <pre_handle>

001000a7 <isr24>:
  1000a7:	6a 00                	push   $0x0
  1000a9:	6a 18                	push   $0x18
  1000ab:	eb 30                	jmp    1000dd <pre_handle>

001000ad <isr25>:
  1000ad:	6a 00                	push   $0x0
  1000af:	6a 19                	push   $0x19
  1000b1:	eb 2a                	jmp    1000dd <pre_handle>

001000b3 <isr26>:
  1000b3:	6a 00                	push   $0x0
  1000b5:	6a 1a                	push   $0x1a
  1000b7:	eb 24                	jmp    1000dd <pre_handle>

001000b9 <isr27>:
  1000b9:	6a 00                	push   $0x0
  1000bb:	6a 1b                	push   $0x1b
  1000bd:	eb 1e                	jmp    1000dd <pre_handle>

001000bf <isr28>:
  1000bf:	6a 00                	push   $0x0
  1000c1:	6a 1c                	push   $0x1c
  1000c3:	eb 18                	jmp    1000dd <pre_handle>

001000c5 <isr29>:
  1000c5:	6a 00                	push   $0x0
  1000c7:	6a 1d                	push   $0x1d
  1000c9:	eb 12                	jmp    1000dd <pre_handle>

001000cb <isr30>:
  1000cb:	6a 00                	push   $0x0
  1000cd:	6a 1e                	push   $0x1e
  1000cf:	eb 0c                	jmp    1000dd <pre_handle>

001000d1 <isr31>:
  1000d1:	6a 00                	push   $0x0
  1000d3:	6a 1f                	push   $0x1f
  1000d5:	eb 06                	jmp    1000dd <pre_handle>

001000d7 <isr32>:
  1000d7:	6a 00                	push   $0x0
  1000d9:	6a 20                	push   $0x20
  1000db:	eb 00                	jmp    1000dd <pre_handle>

001000dd <pre_handle>:
  1000dd:	60                   	pusha  
  1000de:	36 8b 4c 24 08       	mov    %ss:0x8(%esp),%ecx
  1000e3:	89 c3                	mov    %eax,%ebx
  1000e5:	66 8c d0             	mov    %ss,%ax
  1000e8:	25 ff ff 00 00       	and    $0xffff,%eax
  1000ed:	50                   	push   %eax
  1000ee:	66 8c e8             	mov    %gs,%ax
  1000f1:	25 ff ff 00 00       	and    $0xffff,%eax
  1000f6:	50                   	push   %eax
  1000f7:	66 b8 10 00          	mov    $0x10,%ax
  1000fb:	8e d0                	mov    %eax,%ss
  1000fd:	8e c0                	mov    %eax,%es
  1000ff:	8e e0                	mov    %eax,%fs
  100101:	66 b8 18 00          	mov    $0x18,%ax
  100105:	8e e8                	mov    %eax,%gs
  100107:	53                   	push   %ebx
  100108:	51                   	push   %ecx
  100109:	e8 5d 08 00 00       	call   10096b <int_func_route>
  10010e:	83 c4 08             	add    $0x8,%esp
  100111:	58                   	pop    %eax
  100112:	8e e8                	mov    %eax,%gs
  100114:	58                   	pop    %eax
  100115:	8e d0                	mov    %eax,%ss
  100117:	8e c0                	mov    %eax,%es
  100119:	8e e0                	mov    %eax,%fs
  10011b:	61                   	popa   
  10011c:	83 c4 08             	add    $0x8,%esp
  10011f:	b0 20                	mov    $0x20,%al
  100121:	e6 a0                	out    %al,$0xa0
  100123:	e6 20                	out    %al,$0x20
  100125:	cf                   	iret   

00100126 <load_idt>:
  100126:	8b 44 24 04          	mov    0x4(%esp),%eax
  10012a:	0f 01 18             	lidtl  (%eax)
  10012d:	c3                   	ret    
  10012e:	66 90                	xchg   %ax,%ax
  100130:	02 b0 ad 1b 03 00    	add    0x31bad(%eax),%dh
  100136:	00 00                	add    %al,(%eax)
  100138:	fb                   	sti    
  100139:	4f                   	dec    %edi
  10013a:	52                   	push   %edx
  10013b:	e4                   	.byte 0xe4

0010013c <GDT_BASE>:
	...

00100144 <CODE_DESC>:
  100144:	ff ff 00 00 00 98 cf 00                             ........

0010014c <DATA_STACK_DESC>:
  10014c:	ff ff 00 00 00 92 cf 00                             ........

00100154 <VIDEO_DESC>:
  100154:	07 00 00 80 0b 92 c0 00 00 00 00 00 00 00 00 00     ................
	...

0010024c <total_mem_bytes>:
  10024c:	00 00 00 00                                         ....

00100250 <gdt_ptr>:
  100250:	1f 00 3c 01 10 00                                   ..<...

00100256 <boot_start>:
  100256:	fa                   	cli    
  100257:	89 1d 08 20 10 00    	mov    %ebx,0x102008
  10025d:	e4 92                	in     $0x92,%al
  10025f:	0c 02                	or     $0x2,%al
  100261:	e6 92                	out    %al,$0x92
  100263:	0f 01 15 50 02 10 00 	lgdtl  0x100250
  10026a:	0f 20 c0             	mov    %cr0,%eax
  10026d:	83 c8 01             	or     $0x1,%eax
  100270:	0f 22 c0             	mov    %eax,%cr0
  100273:	ea 7a 02 10 00 08 00 	ljmp   $0x8,$0x10027a

0010027a <far_jmp_target>:
  10027a:	66 b8 10 00          	mov    $0x10,%ax
  10027e:	8e d0                	mov    %eax,%ss
  100280:	8e d8                	mov    %eax,%ds
  100282:	66 b8 18 00          	mov    $0x18,%ax
  100286:	8e e8                	mov    %eax,%gs
  100288:	bc ff 3f 20 00       	mov    $0x203fff,%esp
  10028d:	83 e4 f0             	and    $0xfffffff0,%esp
  100290:	bd 00 00 00 00       	mov    $0x0,%ebp
  100295:	e8 05 00 00 00       	call   10029f <kern_entry>
  10029a:	e9 fb ff ff ff       	jmp    10029a <far_jmp_target+0x20>

0010029f <kern_entry>:
  10029f:	55                   	push   %ebp
  1002a0:	89 e5                	mov    %esp,%ebp
  1002a2:	53                   	push   %ebx
  1002a3:	83 ec 04             	sub    $0x4,%esp
  1002a6:	e8 55 1d 00 00       	call   102000 <__x86.get_pc_thunk.bx>
  1002ab:	81 c3 55 2d 00 00    	add    $0x2d55,%ebx
  1002b1:	e8 e4 16 00 00       	call   10199a <vga_init>
  1002b6:	83 ec 08             	sub    $0x8,%esp
  1002b9:	6a 01                	push   $0x1
  1002bb:	8d 83 0c 00 00 00    	lea    0xc(%ebx),%eax
  1002c1:	50                   	push   %eax
  1002c2:	e8 48 08 00 00       	call   100b0f <printk>
  1002c7:	83 c4 10             	add    $0x10,%esp
  1002ca:	e8 35 01 00 00       	call   100404 <idt_init>
  1002cf:	f4                   	hlt    
  1002d0:	eb fd                	jmp    1002cf <kern_entry+0x30>

001002d2 <set_int_disc>:
  1002d2:	55                   	push   %ebp
  1002d3:	89 e5                	mov    %esp,%ebp
  1002d5:	53                   	push   %ebx
  1002d6:	83 ec 08             	sub    $0x8,%esp
  1002d9:	e8 26 1d 00 00       	call   102004 <__x86.get_pc_thunk.ax>
  1002de:	05 22 2d 00 00       	add    $0x2d22,%eax
  1002e3:	8b 4d 10             	mov    0x10(%ebp),%ecx
  1002e6:	8b 55 14             	mov    0x14(%ebp),%edx
  1002e9:	66 89 4d f8          	mov    %cx,-0x8(%ebp)
  1002ed:	88 55 f4             	mov    %dl,-0xc(%ebp)
  1002f0:	8b 55 0c             	mov    0xc(%ebp),%edx
  1002f3:	89 d3                	mov    %edx,%ebx
  1002f5:	c7 c2 20 54 20 00    	mov    $0x205420,%edx
  1002fb:	8b 4d 08             	mov    0x8(%ebp),%ecx
  1002fe:	66 89 1c ca          	mov    %bx,(%edx,%ecx,8)
  100302:	8b 55 0c             	mov    0xc(%ebp),%edx
  100305:	c1 ea 10             	shr    $0x10,%edx
  100308:	89 d3                	mov    %edx,%ebx
  10030a:	c7 c2 20 54 20 00    	mov    $0x205420,%edx
  100310:	8b 4d 08             	mov    0x8(%ebp),%ecx
  100313:	66 89 5c ca 06       	mov    %bx,0x6(%edx,%ecx,8)
  100318:	c7 c2 20 54 20 00    	mov    $0x205420,%edx
  10031e:	8b 4d 08             	mov    0x8(%ebp),%ecx
  100321:	0f b7 5d f8          	movzwl -0x8(%ebp),%ebx
  100325:	66 89 5c ca 02       	mov    %bx,0x2(%edx,%ecx,8)
  10032a:	c7 c2 20 54 20 00    	mov    $0x205420,%edx
  100330:	8b 4d 08             	mov    0x8(%ebp),%ecx
  100333:	0f b6 5d f4          	movzbl -0xc(%ebp),%ebx
  100337:	88 5c ca 05          	mov    %bl,0x5(%edx,%ecx,8)
  10033b:	c7 c0 20 54 20 00    	mov    $0x205420,%eax
  100341:	8b 55 08             	mov    0x8(%ebp),%edx
  100344:	c6 44 d0 04 00       	movb   $0x0,0x4(%eax,%edx,8)
  100349:	90                   	nop
  10034a:	83 c4 08             	add    $0x8,%esp
  10034d:	5b                   	pop    %ebx
  10034e:	5d                   	pop    %ebp
  10034f:	c3                   	ret    

00100350 <timer_init>:
  100350:	55                   	push   %ebp
  100351:	89 e5                	mov    %esp,%ebp
  100353:	53                   	push   %ebx
  100354:	83 ec 14             	sub    $0x14,%esp
  100357:	e8 a4 1c 00 00       	call   102000 <__x86.get_pc_thunk.bx>
  10035c:	81 c3 a4 2c 00 00    	add    $0x2ca4,%ebx
  100362:	b8 dc 34 12 00       	mov    $0x1234dc,%eax
  100367:	ba 00 00 00 00       	mov    $0x0,%edx
  10036c:	f7 75 08             	divl   0x8(%ebp)
  10036f:	89 45 f4             	mov    %eax,-0xc(%ebp)
  100372:	83 ec 08             	sub    $0x8,%esp
  100375:	6a 36                	push   $0x36
  100377:	6a 43                	push   $0x43
  100379:	e8 fa 10 00 00       	call   101478 <outb>
  10037e:	83 c4 10             	add    $0x10,%esp
  100381:	8b 45 f4             	mov    -0xc(%ebp),%eax
  100384:	88 45 f3             	mov    %al,-0xd(%ebp)
  100387:	8b 45 f4             	mov    -0xc(%ebp),%eax
  10038a:	c1 e8 08             	shr    $0x8,%eax
  10038d:	88 45 f2             	mov    %al,-0xe(%ebp)
  100390:	0f b6 45 f3          	movzbl -0xd(%ebp),%eax
  100394:	83 ec 08             	sub    $0x8,%esp
  100397:	50                   	push   %eax
  100398:	6a 40                	push   $0x40
  10039a:	e8 d9 10 00 00       	call   101478 <outb>
  10039f:	83 c4 10             	add    $0x10,%esp
  1003a2:	0f b6 45 f2          	movzbl -0xe(%ebp),%eax
  1003a6:	83 ec 08             	sub    $0x8,%esp
  1003a9:	50                   	push   %eax
  1003aa:	6a 40                	push   $0x40
  1003ac:	e8 c7 10 00 00       	call   101478 <outb>
  1003b1:	83 c4 10             	add    $0x10,%esp
  1003b4:	90                   	nop
  1003b5:	8b 5d fc             	mov    -0x4(%ebp),%ebx
  1003b8:	c9                   	leave  
  1003b9:	c3                   	ret    

001003ba <registe_interrupt>:
  1003ba:	55                   	push   %ebp
  1003bb:	89 e5                	mov    %esp,%ebp
  1003bd:	e8 42 1c 00 00       	call   102004 <__x86.get_pc_thunk.ax>
  1003c2:	05 3e 2c 00 00       	add    $0x2c3e,%eax
  1003c7:	c7 c0 00 50 20 00    	mov    $0x205000,%eax
  1003cd:	8b 55 08             	mov    0x8(%ebp),%edx
  1003d0:	8b 4d 0c             	mov    0xc(%ebp),%ecx
  1003d3:	89 0c 90             	mov    %ecx,(%eax,%edx,4)
  1003d6:	90                   	nop
  1003d7:	5d                   	pop    %ebp
  1003d8:	c3                   	ret    

001003d9 <default_server_func>:
  1003d9:	55                   	push   %ebp
  1003da:	89 e5                	mov    %esp,%ebp
  1003dc:	53                   	push   %ebx
  1003dd:	83 ec 04             	sub    $0x4,%esp
  1003e0:	e8 1f 1c 00 00       	call   102004 <__x86.get_pc_thunk.ax>
  1003e5:	05 1b 2c 00 00       	add    $0x2c1b,%eax
  1003ea:	83 ec 0c             	sub    $0xc,%esp
  1003ed:	8d 90 10 00 00 00    	lea    0x10(%eax),%edx
  1003f3:	52                   	push   %edx
  1003f4:	89 c3                	mov    %eax,%ebx
  1003f6:	e8 14 07 00 00       	call   100b0f <printk>
  1003fb:	83 c4 10             	add    $0x10,%esp
  1003fe:	90                   	nop
  1003ff:	8b 5d fc             	mov    -0x4(%ebp),%ebx
  100402:	c9                   	leave  
  100403:	c3                   	ret    

00100404 <idt_init>:
  100404:	55                   	push   %ebp
  100405:	89 e5                	mov    %esp,%ebp
  100407:	53                   	push   %ebx
  100408:	83 ec 04             	sub    $0x4,%esp
  10040b:	e8 f0 1b 00 00       	call   102000 <__x86.get_pc_thunk.bx>
  100410:	81 c3 f0 2b 00 00    	add    $0x2bf0,%ebx
  100416:	e8 7a 05 00 00       	call   100995 <_8259A_init>
  10041b:	0f b6 83 0c f0 ff ff 	movzbl -0xff4(%ebx),%eax
  100422:	0f b6 d0             	movzbl %al,%edx
  100425:	0f b7 83 0e f0 ff ff 	movzwl -0xff2(%ebx),%eax
  10042c:	0f b7 c0             	movzwl %ax,%eax
  10042f:	c7 c1 00 00 10 00    	mov    $0x100000,%ecx
  100435:	52                   	push   %edx
  100436:	50                   	push   %eax
  100437:	51                   	push   %ecx
  100438:	6a 00                	push   $0x0
  10043a:	e8 93 fe ff ff       	call   1002d2 <set_int_disc>
  10043f:	83 c4 10             	add    $0x10,%esp
  100442:	0f b6 83 0c f0 ff ff 	movzbl -0xff4(%ebx),%eax
  100449:	0f b6 d0             	movzbl %al,%edx
  10044c:	0f b7 83 0e f0 ff ff 	movzwl -0xff2(%ebx),%eax
  100453:	0f b7 c0             	movzwl %ax,%eax
  100456:	c7 c1 09 00 10 00    	mov    $0x100009,%ecx
  10045c:	52                   	push   %edx
  10045d:	50                   	push   %eax
  10045e:	51                   	push   %ecx
  10045f:	6a 01                	push   $0x1
  100461:	e8 6c fe ff ff       	call   1002d2 <set_int_disc>
  100466:	83 c4 10             	add    $0x10,%esp
  100469:	0f b6 83 0c f0 ff ff 	movzbl -0xff4(%ebx),%eax
  100470:	0f b6 d0             	movzbl %al,%edx
  100473:	0f b7 83 0e f0 ff ff 	movzwl -0xff2(%ebx),%eax
  10047a:	0f b7 c0             	movzwl %ax,%eax
  10047d:	c7 c1 12 00 10 00    	mov    $0x100012,%ecx
  100483:	52                   	push   %edx
  100484:	50                   	push   %eax
  100485:	51                   	push   %ecx
  100486:	6a 02                	push   $0x2
  100488:	e8 45 fe ff ff       	call   1002d2 <set_int_disc>
  10048d:	83 c4 10             	add    $0x10,%esp
  100490:	0f b6 83 0c f0 ff ff 	movzbl -0xff4(%ebx),%eax
  100497:	0f b6 d0             	movzbl %al,%edx
  10049a:	0f b7 83 0e f0 ff ff 	movzwl -0xff2(%ebx),%eax
  1004a1:	0f b7 c0             	movzwl %ax,%eax
  1004a4:	c7 c1 1b 00 10 00    	mov    $0x10001b,%ecx
  1004aa:	52                   	push   %edx
  1004ab:	50                   	push   %eax
  1004ac:	51                   	push   %ecx
  1004ad:	6a 03                	push   $0x3
  1004af:	e8 1e fe ff ff       	call   1002d2 <set_int_disc>
  1004b4:	83 c4 10             	add    $0x10,%esp
  1004b7:	0f b6 83 0c f0 ff ff 	movzbl -0xff4(%ebx),%eax
  1004be:	0f b6 d0             	movzbl %al,%edx
  1004c1:	0f b7 83 0e f0 ff ff 	movzwl -0xff2(%ebx),%eax
  1004c8:	0f b7 c0             	movzwl %ax,%eax
  1004cb:	c7 c1 24 00 10 00    	mov    $0x100024,%ecx
  1004d1:	52                   	push   %edx
  1004d2:	50                   	push   %eax
  1004d3:	51                   	push   %ecx
  1004d4:	6a 04                	push   $0x4
  1004d6:	e8 f7 fd ff ff       	call   1002d2 <set_int_disc>
  1004db:	83 c4 10             	add    $0x10,%esp
  1004de:	0f b6 83 0c f0 ff ff 	movzbl -0xff4(%ebx),%eax
  1004e5:	0f b6 d0             	movzbl %al,%edx
  1004e8:	0f b7 83 0e f0 ff ff 	movzwl -0xff2(%ebx),%eax
  1004ef:	0f b7 c0             	movzwl %ax,%eax
  1004f2:	c7 c1 2d 00 10 00    	mov    $0x10002d,%ecx
  1004f8:	52                   	push   %edx
  1004f9:	50                   	push   %eax
  1004fa:	51                   	push   %ecx
  1004fb:	6a 05                	push   $0x5
  1004fd:	e8 d0 fd ff ff       	call   1002d2 <set_int_disc>
  100502:	83 c4 10             	add    $0x10,%esp
  100505:	0f b6 83 0c f0 ff ff 	movzbl -0xff4(%ebx),%eax
  10050c:	0f b6 d0             	movzbl %al,%edx
  10050f:	0f b7 83 0e f0 ff ff 	movzwl -0xff2(%ebx),%eax
  100516:	0f b7 c0             	movzwl %ax,%eax
  100519:	c7 c1 36 00 10 00    	mov    $0x100036,%ecx
  10051f:	52                   	push   %edx
  100520:	50                   	push   %eax
  100521:	51                   	push   %ecx
  100522:	6a 06                	push   $0x6
  100524:	e8 a9 fd ff ff       	call   1002d2 <set_int_disc>
  100529:	83 c4 10             	add    $0x10,%esp
  10052c:	0f b6 83 0c f0 ff ff 	movzbl -0xff4(%ebx),%eax
  100533:	0f b6 d0             	movzbl %al,%edx
  100536:	0f b7 83 0e f0 ff ff 	movzwl -0xff2(%ebx),%eax
  10053d:	0f b7 c0             	movzwl %ax,%eax
  100540:	c7 c1 3f 00 10 00    	mov    $0x10003f,%ecx
  100546:	52                   	push   %edx
  100547:	50                   	push   %eax
  100548:	51                   	push   %ecx
  100549:	6a 07                	push   $0x7
  10054b:	e8 82 fd ff ff       	call   1002d2 <set_int_disc>
  100550:	83 c4 10             	add    $0x10,%esp
  100553:	0f b6 83 0c f0 ff ff 	movzbl -0xff4(%ebx),%eax
  10055a:	0f b6 d0             	movzbl %al,%edx
  10055d:	0f b7 83 0e f0 ff ff 	movzwl -0xff2(%ebx),%eax
  100564:	0f b7 c0             	movzwl %ax,%eax
  100567:	c7 c1 48 00 10 00    	mov    $0x100048,%ecx
  10056d:	52                   	push   %edx
  10056e:	50                   	push   %eax
  10056f:	51                   	push   %ecx
  100570:	6a 08                	push   $0x8
  100572:	e8 5b fd ff ff       	call   1002d2 <set_int_disc>
  100577:	83 c4 10             	add    $0x10,%esp
  10057a:	0f b6 83 0c f0 ff ff 	movzbl -0xff4(%ebx),%eax
  100581:	0f b6 d0             	movzbl %al,%edx
  100584:	0f b7 83 0e f0 ff ff 	movzwl -0xff2(%ebx),%eax
  10058b:	0f b7 c0             	movzwl %ax,%eax
  10058e:	c7 c1 50 00 10 00    	mov    $0x100050,%ecx
  100594:	52                   	push   %edx
  100595:	50                   	push   %eax
  100596:	51                   	push   %ecx
  100597:	6a 09                	push   $0x9
  100599:	e8 34 fd ff ff       	call   1002d2 <set_int_disc>
  10059e:	83 c4 10             	add    $0x10,%esp
  1005a1:	0f b6 83 0c f0 ff ff 	movzbl -0xff4(%ebx),%eax
  1005a8:	0f b6 d0             	movzbl %al,%edx
  1005ab:	0f b7 83 0e f0 ff ff 	movzwl -0xff2(%ebx),%eax
  1005b2:	0f b7 c0             	movzwl %ax,%eax
  1005b5:	c7 c1 59 00 10 00    	mov    $0x100059,%ecx
  1005bb:	52                   	push   %edx
  1005bc:	50                   	push   %eax
  1005bd:	51                   	push   %ecx
  1005be:	6a 0a                	push   $0xa
  1005c0:	e8 0d fd ff ff       	call   1002d2 <set_int_disc>
  1005c5:	83 c4 10             	add    $0x10,%esp
  1005c8:	0f b6 83 0c f0 ff ff 	movzbl -0xff4(%ebx),%eax
  1005cf:	0f b6 d0             	movzbl %al,%edx
  1005d2:	0f b7 83 0e f0 ff ff 	movzwl -0xff2(%ebx),%eax
  1005d9:	0f b7 c0             	movzwl %ax,%eax
  1005dc:	c7 c1 5e 00 10 00    	mov    $0x10005e,%ecx
  1005e2:	52                   	push   %edx
  1005e3:	50                   	push   %eax
  1005e4:	51                   	push   %ecx
  1005e5:	6a 0b                	push   $0xb
  1005e7:	e8 e6 fc ff ff       	call   1002d2 <set_int_disc>
  1005ec:	83 c4 10             	add    $0x10,%esp
  1005ef:	0f b6 83 0c f0 ff ff 	movzbl -0xff4(%ebx),%eax
  1005f6:	0f b6 d0             	movzbl %al,%edx
  1005f9:	0f b7 83 0e f0 ff ff 	movzwl -0xff2(%ebx),%eax
  100600:	0f b7 c0             	movzwl %ax,%eax
  100603:	c7 c1 63 00 10 00    	mov    $0x100063,%ecx
  100609:	52                   	push   %edx
  10060a:	50                   	push   %eax
  10060b:	51                   	push   %ecx
  10060c:	6a 0c                	push   $0xc
  10060e:	e8 bf fc ff ff       	call   1002d2 <set_int_disc>
  100613:	83 c4 10             	add    $0x10,%esp
  100616:	0f b6 83 0c f0 ff ff 	movzbl -0xff4(%ebx),%eax
  10061d:	0f b6 d0             	movzbl %al,%edx
  100620:	0f b7 83 0e f0 ff ff 	movzwl -0xff2(%ebx),%eax
  100627:	0f b7 c0             	movzwl %ax,%eax
  10062a:	c7 c1 68 00 10 00    	mov    $0x100068,%ecx
  100630:	52                   	push   %edx
  100631:	50                   	push   %eax
  100632:	51                   	push   %ecx
  100633:	6a 0d                	push   $0xd
  100635:	e8 98 fc ff ff       	call   1002d2 <set_int_disc>
  10063a:	83 c4 10             	add    $0x10,%esp
  10063d:	0f b6 83 0c f0 ff ff 	movzbl -0xff4(%ebx),%eax
  100644:	0f b6 d0             	movzbl %al,%edx
  100647:	0f b7 83 0e f0 ff ff 	movzwl -0xff2(%ebx),%eax
  10064e:	0f b7 c0             	movzwl %ax,%eax
  100651:	c7 c1 6d 00 10 00    	mov    $0x10006d,%ecx
  100657:	52                   	push   %edx
  100658:	50                   	push   %eax
  100659:	51                   	push   %ecx
  10065a:	6a 0e                	push   $0xe
  10065c:	e8 71 fc ff ff       	call   1002d2 <set_int_disc>
  100661:	83 c4 10             	add    $0x10,%esp
  100664:	0f b6 83 0c f0 ff ff 	movzbl -0xff4(%ebx),%eax
  10066b:	0f b6 d0             	movzbl %al,%edx
  10066e:	0f b7 83 0e f0 ff ff 	movzwl -0xff2(%ebx),%eax
  100675:	0f b7 c0             	movzwl %ax,%eax
  100678:	c7 c1 72 00 10 00    	mov    $0x100072,%ecx
  10067e:	52                   	push   %edx
  10067f:	50                   	push   %eax
  100680:	51                   	push   %ecx
  100681:	6a 0f                	push   $0xf
  100683:	e8 4a fc ff ff       	call   1002d2 <set_int_disc>
  100688:	83 c4 10             	add    $0x10,%esp
  10068b:	0f b6 83 0c f0 ff ff 	movzbl -0xff4(%ebx),%eax
  100692:	0f b6 d0             	movzbl %al,%edx
  100695:	0f b7 83 0e f0 ff ff 	movzwl -0xff2(%ebx),%eax
  10069c:	0f b7 c0             	movzwl %ax,%eax
  10069f:	c7 c1 78 00 10 00    	mov    $0x100078,%ecx
  1006a5:	52                   	push   %edx
  1006a6:	50                   	push   %eax
  1006a7:	51                   	push   %ecx
  1006a8:	6a 10                	push   $0x10
  1006aa:	e8 23 fc ff ff       	call   1002d2 <set_int_disc>
  1006af:	83 c4 10             	add    $0x10,%esp
  1006b2:	0f b6 83 0c f0 ff ff 	movzbl -0xff4(%ebx),%eax
  1006b9:	0f b6 d0             	movzbl %al,%edx
  1006bc:	0f b7 83 0e f0 ff ff 	movzwl -0xff2(%ebx),%eax
  1006c3:	0f b7 c0             	movzwl %ax,%eax
  1006c6:	c7 c1 7e 00 10 00    	mov    $0x10007e,%ecx
  1006cc:	52                   	push   %edx
  1006cd:	50                   	push   %eax
  1006ce:	51                   	push   %ecx
  1006cf:	6a 11                	push   $0x11
  1006d1:	e8 fc fb ff ff       	call   1002d2 <set_int_disc>
  1006d6:	83 c4 10             	add    $0x10,%esp
  1006d9:	0f b6 83 0c f0 ff ff 	movzbl -0xff4(%ebx),%eax
  1006e0:	0f b6 d0             	movzbl %al,%edx
  1006e3:	0f b7 83 0e f0 ff ff 	movzwl -0xff2(%ebx),%eax
  1006ea:	0f b7 c0             	movzwl %ax,%eax
  1006ed:	c7 c1 83 00 10 00    	mov    $0x100083,%ecx
  1006f3:	52                   	push   %edx
  1006f4:	50                   	push   %eax
  1006f5:	51                   	push   %ecx
  1006f6:	6a 12                	push   $0x12
  1006f8:	e8 d5 fb ff ff       	call   1002d2 <set_int_disc>
  1006fd:	83 c4 10             	add    $0x10,%esp
  100700:	0f b6 83 0c f0 ff ff 	movzbl -0xff4(%ebx),%eax
  100707:	0f b6 d0             	movzbl %al,%edx
  10070a:	0f b7 83 0e f0 ff ff 	movzwl -0xff2(%ebx),%eax
  100711:	0f b7 c0             	movzwl %ax,%eax
  100714:	c7 c1 89 00 10 00    	mov    $0x100089,%ecx
  10071a:	52                   	push   %edx
  10071b:	50                   	push   %eax
  10071c:	51                   	push   %ecx
  10071d:	6a 13                	push   $0x13
  10071f:	e8 ae fb ff ff       	call   1002d2 <set_int_disc>
  100724:	83 c4 10             	add    $0x10,%esp
  100727:	0f b6 83 0c f0 ff ff 	movzbl -0xff4(%ebx),%eax
  10072e:	0f b6 d0             	movzbl %al,%edx
  100731:	0f b7 83 0e f0 ff ff 	movzwl -0xff2(%ebx),%eax
  100738:	0f b7 c0             	movzwl %ax,%eax
  10073b:	c7 c1 8f 00 10 00    	mov    $0x10008f,%ecx
  100741:	52                   	push   %edx
  100742:	50                   	push   %eax
  100743:	51                   	push   %ecx
  100744:	6a 14                	push   $0x14
  100746:	e8 87 fb ff ff       	call   1002d2 <set_int_disc>
  10074b:	83 c4 10             	add    $0x10,%esp
  10074e:	0f b6 83 0c f0 ff ff 	movzbl -0xff4(%ebx),%eax
  100755:	0f b6 d0             	movzbl %al,%edx
  100758:	0f b7 83 0e f0 ff ff 	movzwl -0xff2(%ebx),%eax
  10075f:	0f b7 c0             	movzwl %ax,%eax
  100762:	c7 c1 95 00 10 00    	mov    $0x100095,%ecx
  100768:	52                   	push   %edx
  100769:	50                   	push   %eax
  10076a:	51                   	push   %ecx
  10076b:	6a 15                	push   $0x15
  10076d:	e8 60 fb ff ff       	call   1002d2 <set_int_disc>
  100772:	83 c4 10             	add    $0x10,%esp
  100775:	0f b6 83 0c f0 ff ff 	movzbl -0xff4(%ebx),%eax
  10077c:	0f b6 d0             	movzbl %al,%edx
  10077f:	0f b7 83 0e f0 ff ff 	movzwl -0xff2(%ebx),%eax
  100786:	0f b7 c0             	movzwl %ax,%eax
  100789:	c7 c1 9b 00 10 00    	mov    $0x10009b,%ecx
  10078f:	52                   	push   %edx
  100790:	50                   	push   %eax
  100791:	51                   	push   %ecx
  100792:	6a 16                	push   $0x16
  100794:	e8 39 fb ff ff       	call   1002d2 <set_int_disc>
  100799:	83 c4 10             	add    $0x10,%esp
  10079c:	0f b6 83 0c f0 ff ff 	movzbl -0xff4(%ebx),%eax
  1007a3:	0f b6 d0             	movzbl %al,%edx
  1007a6:	0f b7 83 0e f0 ff ff 	movzwl -0xff2(%ebx),%eax
  1007ad:	0f b7 c0             	movzwl %ax,%eax
  1007b0:	c7 c1 a1 00 10 00    	mov    $0x1000a1,%ecx
  1007b6:	52                   	push   %edx
  1007b7:	50                   	push   %eax
  1007b8:	51                   	push   %ecx
  1007b9:	6a 17                	push   $0x17
  1007bb:	e8 12 fb ff ff       	call   1002d2 <set_int_disc>
  1007c0:	83 c4 10             	add    $0x10,%esp
  1007c3:	0f b6 83 0c f0 ff ff 	movzbl -0xff4(%ebx),%eax
  1007ca:	0f b6 d0             	movzbl %al,%edx
  1007cd:	0f b7 83 0e f0 ff ff 	movzwl -0xff2(%ebx),%eax
  1007d4:	0f b7 c0             	movzwl %ax,%eax
  1007d7:	c7 c1 a7 00 10 00    	mov    $0x1000a7,%ecx
  1007dd:	52                   	push   %edx
  1007de:	50                   	push   %eax
  1007df:	51                   	push   %ecx
  1007e0:	6a 18                	push   $0x18
  1007e2:	e8 eb fa ff ff       	call   1002d2 <set_int_disc>
  1007e7:	83 c4 10             	add    $0x10,%esp
  1007ea:	0f b6 83 0c f0 ff ff 	movzbl -0xff4(%ebx),%eax
  1007f1:	0f b6 d0             	movzbl %al,%edx
  1007f4:	0f b7 83 0e f0 ff ff 	movzwl -0xff2(%ebx),%eax
  1007fb:	0f b7 c0             	movzwl %ax,%eax
  1007fe:	c7 c1 ad 00 10 00    	mov    $0x1000ad,%ecx
  100804:	52                   	push   %edx
  100805:	50                   	push   %eax
  100806:	51                   	push   %ecx
  100807:	6a 19                	push   $0x19
  100809:	e8 c4 fa ff ff       	call   1002d2 <set_int_disc>
  10080e:	83 c4 10             	add    $0x10,%esp
  100811:	0f b6 83 0c f0 ff ff 	movzbl -0xff4(%ebx),%eax
  100818:	0f b6 d0             	movzbl %al,%edx
  10081b:	0f b7 83 0e f0 ff ff 	movzwl -0xff2(%ebx),%eax
  100822:	0f b7 c0             	movzwl %ax,%eax
  100825:	c7 c1 b3 00 10 00    	mov    $0x1000b3,%ecx
  10082b:	52                   	push   %edx
  10082c:	50                   	push   %eax
  10082d:	51                   	push   %ecx
  10082e:	6a 1a                	push   $0x1a
  100830:	e8 9d fa ff ff       	call   1002d2 <set_int_disc>
  100835:	83 c4 10             	add    $0x10,%esp
  100838:	0f b6 83 0c f0 ff ff 	movzbl -0xff4(%ebx),%eax
  10083f:	0f b6 d0             	movzbl %al,%edx
  100842:	0f b7 83 0e f0 ff ff 	movzwl -0xff2(%ebx),%eax
  100849:	0f b7 c0             	movzwl %ax,%eax
  10084c:	c7 c1 b9 00 10 00    	mov    $0x1000b9,%ecx
  100852:	52                   	push   %edx
  100853:	50                   	push   %eax
  100854:	51                   	push   %ecx
  100855:	6a 1b                	push   $0x1b
  100857:	e8 76 fa ff ff       	call   1002d2 <set_int_disc>
  10085c:	83 c4 10             	add    $0x10,%esp
  10085f:	0f b6 83 0c f0 ff ff 	movzbl -0xff4(%ebx),%eax
  100866:	0f b6 d0             	movzbl %al,%edx
  100869:	0f b7 83 0e f0 ff ff 	movzwl -0xff2(%ebx),%eax
  100870:	0f b7 c0             	movzwl %ax,%eax
  100873:	c7 c1 bf 00 10 00    	mov    $0x1000bf,%ecx
  100879:	52                   	push   %edx
  10087a:	50                   	push   %eax
  10087b:	51                   	push   %ecx
  10087c:	6a 1c                	push   $0x1c
  10087e:	e8 4f fa ff ff       	call   1002d2 <set_int_disc>
  100883:	83 c4 10             	add    $0x10,%esp
  100886:	0f b6 83 0c f0 ff ff 	movzbl -0xff4(%ebx),%eax
  10088d:	0f b6 d0             	movzbl %al,%edx
  100890:	0f b7 83 0e f0 ff ff 	movzwl -0xff2(%ebx),%eax
  100897:	0f b7 c0             	movzwl %ax,%eax
  10089a:	c7 c1 c5 00 10 00    	mov    $0x1000c5,%ecx
  1008a0:	52                   	push   %edx
  1008a1:	50                   	push   %eax
  1008a2:	51                   	push   %ecx
  1008a3:	6a 1d                	push   $0x1d
  1008a5:	e8 28 fa ff ff       	call   1002d2 <set_int_disc>
  1008aa:	83 c4 10             	add    $0x10,%esp
  1008ad:	0f b6 83 0c f0 ff ff 	movzbl -0xff4(%ebx),%eax
  1008b4:	0f b6 d0             	movzbl %al,%edx
  1008b7:	0f b7 83 0e f0 ff ff 	movzwl -0xff2(%ebx),%eax
  1008be:	0f b7 c0             	movzwl %ax,%eax
  1008c1:	c7 c1 cb 00 10 00    	mov    $0x1000cb,%ecx
  1008c7:	52                   	push   %edx
  1008c8:	50                   	push   %eax
  1008c9:	51                   	push   %ecx
  1008ca:	6a 1e                	push   $0x1e
  1008cc:	e8 01 fa ff ff       	call   1002d2 <set_int_disc>
  1008d1:	83 c4 10             	add    $0x10,%esp
  1008d4:	0f b6 83 0c f0 ff ff 	movzbl -0xff4(%ebx),%eax
  1008db:	0f b6 d0             	movzbl %al,%edx
  1008de:	0f b7 83 0e f0 ff ff 	movzwl -0xff2(%ebx),%eax
  1008e5:	0f b7 c0             	movzwl %ax,%eax
  1008e8:	c7 c1 d1 00 10 00    	mov    $0x1000d1,%ecx
  1008ee:	52                   	push   %edx
  1008ef:	50                   	push   %eax
  1008f0:	51                   	push   %ecx
  1008f1:	6a 1f                	push   $0x1f
  1008f3:	e8 da f9 ff ff       	call   1002d2 <set_int_disc>
  1008f8:	83 c4 10             	add    $0x10,%esp
  1008fb:	0f b6 83 0c f0 ff ff 	movzbl -0xff4(%ebx),%eax
  100902:	0f b6 d0             	movzbl %al,%edx
  100905:	0f b7 83 0e f0 ff ff 	movzwl -0xff2(%ebx),%eax
  10090c:	0f b7 c0             	movzwl %ax,%eax
  10090f:	c7 c1 d7 00 10 00    	mov    $0x1000d7,%ecx
  100915:	52                   	push   %edx
  100916:	50                   	push   %eax
  100917:	51                   	push   %ecx
  100918:	6a 20                	push   $0x20
  10091a:	e8 b3 f9 ff ff       	call   1002d2 <set_int_disc>
  10091f:	83 c4 10             	add    $0x10,%esp
  100922:	83 ec 08             	sub    $0x8,%esp
  100925:	8d 83 d9 d3 ff ff    	lea    -0x2c27(%ebx),%eax
  10092b:	50                   	push   %eax
  10092c:	6a 20                	push   $0x20
  10092e:	e8 87 fa ff ff       	call   1003ba <registe_interrupt>
  100933:	83 c4 10             	add    $0x10,%esp
  100936:	c7 c0 00 54 20 00    	mov    $0x205400,%eax
  10093c:	66 c7 00 00 08       	movw   $0x800,(%eax)
  100941:	c7 c0 20 54 20 00    	mov    $0x205420,%eax
  100947:	89 c2                	mov    %eax,%edx
  100949:	c7 c0 00 54 20 00    	mov    $0x205400,%eax
  10094f:	89 50 02             	mov    %edx,0x2(%eax)
  100952:	c7 c0 00 54 20 00    	mov    $0x205400,%eax
  100958:	83 ec 0c             	sub    $0xc,%esp
  10095b:	50                   	push   %eax
  10095c:	e8 c5 f7 ff ff       	call   100126 <load_idt>
  100961:	83 c4 10             	add    $0x10,%esp
  100964:	fb                   	sti    
  100965:	90                   	nop
  100966:	8b 5d fc             	mov    -0x4(%ebp),%ebx
  100969:	c9                   	leave  
  10096a:	c3                   	ret    

0010096b <int_func_route>:
  10096b:	55                   	push   %ebp
  10096c:	89 e5                	mov    %esp,%ebp
  10096e:	83 ec 08             	sub    $0x8,%esp
  100971:	e8 8e 16 00 00       	call   102004 <__x86.get_pc_thunk.ax>
  100976:	05 8a 26 00 00       	add    $0x268a,%eax
  10097b:	c7 c0 00 50 20 00    	mov    $0x205000,%eax
  100981:	8b 55 08             	mov    0x8(%ebp),%edx
  100984:	8b 04 90             	mov    (%eax,%edx,4),%eax
  100987:	83 ec 0c             	sub    $0xc,%esp
  10098a:	ff 75 0c             	pushl  0xc(%ebp)
  10098d:	ff d0                	call   *%eax
  10098f:	83 c4 10             	add    $0x10,%esp
  100992:	90                   	nop
  100993:	c9                   	leave  
  100994:	c3                   	ret    

00100995 <_8259A_init>:
  100995:	55                   	push   %ebp
  100996:	89 e5                	mov    %esp,%ebp
  100998:	53                   	push   %ebx
  100999:	83 ec 04             	sub    $0x4,%esp
  10099c:	e8 5f 16 00 00       	call   102000 <__x86.get_pc_thunk.bx>
  1009a1:	81 c3 5f 26 00 00    	add    $0x265f,%ebx
  1009a7:	0f b7 83 10 f0 ff ff 	movzwl -0xff0(%ebx),%eax
  1009ae:	0f b7 c0             	movzwl %ax,%eax
  1009b1:	83 ec 08             	sub    $0x8,%esp
  1009b4:	6a 11                	push   $0x11
  1009b6:	50                   	push   %eax
  1009b7:	e8 bc 0a 00 00       	call   101478 <outb>
  1009bc:	83 c4 10             	add    $0x10,%esp
  1009bf:	0f b7 83 12 f0 ff ff 	movzwl -0xfee(%ebx),%eax
  1009c6:	0f b7 c0             	movzwl %ax,%eax
  1009c9:	83 ec 08             	sub    $0x8,%esp
  1009cc:	6a 20                	push   $0x20
  1009ce:	50                   	push   %eax
  1009cf:	e8 a4 0a 00 00       	call   101478 <outb>
  1009d4:	83 c4 10             	add    $0x10,%esp
  1009d7:	0f b7 83 12 f0 ff ff 	movzwl -0xfee(%ebx),%eax
  1009de:	0f b7 c0             	movzwl %ax,%eax
  1009e1:	83 ec 08             	sub    $0x8,%esp
  1009e4:	6a 04                	push   $0x4
  1009e6:	50                   	push   %eax
  1009e7:	e8 8c 0a 00 00       	call   101478 <outb>
  1009ec:	83 c4 10             	add    $0x10,%esp
  1009ef:	0f b7 83 12 f0 ff ff 	movzwl -0xfee(%ebx),%eax
  1009f6:	0f b7 c0             	movzwl %ax,%eax
  1009f9:	83 ec 08             	sub    $0x8,%esp
  1009fc:	6a 01                	push   $0x1
  1009fe:	50                   	push   %eax
  1009ff:	e8 74 0a 00 00       	call   101478 <outb>
  100a04:	83 c4 10             	add    $0x10,%esp
  100a07:	0f b7 83 14 f0 ff ff 	movzwl -0xfec(%ebx),%eax
  100a0e:	0f b7 c0             	movzwl %ax,%eax
  100a11:	83 ec 08             	sub    $0x8,%esp
  100a14:	6a 11                	push   $0x11
  100a16:	50                   	push   %eax
  100a17:	e8 5c 0a 00 00       	call   101478 <outb>
  100a1c:	83 c4 10             	add    $0x10,%esp
  100a1f:	0f b7 83 16 f0 ff ff 	movzwl -0xfea(%ebx),%eax
  100a26:	0f b7 c0             	movzwl %ax,%eax
  100a29:	83 ec 08             	sub    $0x8,%esp
  100a2c:	6a 28                	push   $0x28
  100a2e:	50                   	push   %eax
  100a2f:	e8 44 0a 00 00       	call   101478 <outb>
  100a34:	83 c4 10             	add    $0x10,%esp
  100a37:	0f b7 83 16 f0 ff ff 	movzwl -0xfea(%ebx),%eax
  100a3e:	0f b7 c0             	movzwl %ax,%eax
  100a41:	83 ec 08             	sub    $0x8,%esp
  100a44:	6a 02                	push   $0x2
  100a46:	50                   	push   %eax
  100a47:	e8 2c 0a 00 00       	call   101478 <outb>
  100a4c:	83 c4 10             	add    $0x10,%esp
  100a4f:	0f b7 83 16 f0 ff ff 	movzwl -0xfea(%ebx),%eax
  100a56:	0f b7 c0             	movzwl %ax,%eax
  100a59:	83 ec 08             	sub    $0x8,%esp
  100a5c:	6a 01                	push   $0x1
  100a5e:	50                   	push   %eax
  100a5f:	e8 14 0a 00 00       	call   101478 <outb>
  100a64:	83 c4 10             	add    $0x10,%esp
  100a67:	90                   	nop
  100a68:	8b 5d fc             	mov    -0x4(%ebp),%ebx
  100a6b:	c9                   	leave  
  100a6c:	c3                   	ret    

00100a6d <insert_str>:
  100a6d:	55                   	push   %ebp
  100a6e:	89 e5                	mov    %esp,%ebp
  100a70:	57                   	push   %edi
  100a71:	53                   	push   %ebx
  100a72:	83 ec 70             	sub    $0x70,%esp
  100a75:	e8 86 15 00 00       	call   102000 <__x86.get_pc_thunk.bx>
  100a7a:	81 c3 86 25 00 00    	add    $0x2586,%ebx
  100a80:	8d 55 90             	lea    -0x70(%ebp),%edx
  100a83:	b8 00 00 00 00       	mov    $0x0,%eax
  100a88:	b9 19 00 00 00       	mov    $0x19,%ecx
  100a8d:	89 d7                	mov    %edx,%edi
  100a8f:	f3 ab                	rep stos %eax,%es:(%edi)
  100a91:	8d 45 90             	lea    -0x70(%ebp),%eax
  100a94:	89 45 f4             	mov    %eax,-0xc(%ebp)
  100a97:	8b 45 10             	mov    0x10(%ebp),%eax
  100a9a:	8d 50 02             	lea    0x2(%eax),%edx
  100a9d:	8b 45 08             	mov    0x8(%ebp),%eax
  100aa0:	01 d0                	add    %edx,%eax
  100aa2:	83 ec 08             	sub    $0x8,%esp
  100aa5:	50                   	push   %eax
  100aa6:	ff 75 f4             	pushl  -0xc(%ebp)
  100aa9:	e8 09 08 00 00       	call   1012b7 <strcpy>
  100aae:	83 c4 10             	add    $0x10,%esp
  100ab1:	83 ec 0c             	sub    $0xc,%esp
  100ab4:	ff 75 0c             	pushl  0xc(%ebp)
  100ab7:	e8 ca 07 00 00       	call   101286 <strlen>
  100abc:	83 c4 10             	add    $0x10,%esp
  100abf:	89 c1                	mov    %eax,%ecx
  100ac1:	8b 55 08             	mov    0x8(%ebp),%edx
  100ac4:	8b 45 10             	mov    0x10(%ebp),%eax
  100ac7:	01 d0                	add    %edx,%eax
  100ac9:	83 ec 04             	sub    $0x4,%esp
  100acc:	51                   	push   %ecx
  100acd:	ff 75 0c             	pushl  0xc(%ebp)
  100ad0:	50                   	push   %eax
  100ad1:	e8 c5 06 00 00       	call   10119b <memcpy>
  100ad6:	83 c4 10             	add    $0x10,%esp
  100ad9:	83 ec 0c             	sub    $0xc,%esp
  100adc:	ff 75 0c             	pushl  0xc(%ebp)
  100adf:	e8 a2 07 00 00       	call   101286 <strlen>
  100ae4:	83 c4 10             	add    $0x10,%esp
  100ae7:	89 c2                	mov    %eax,%edx
  100ae9:	8b 45 10             	mov    0x10(%ebp),%eax
  100aec:	01 c2                	add    %eax,%edx
  100aee:	8b 45 08             	mov    0x8(%ebp),%eax
  100af1:	01 d0                	add    %edx,%eax
  100af3:	c6 00 00             	movb   $0x0,(%eax)
  100af6:	83 ec 08             	sub    $0x8,%esp
  100af9:	ff 75 f4             	pushl  -0xc(%ebp)
  100afc:	ff 75 08             	pushl  0x8(%ebp)
  100aff:	e8 f9 07 00 00       	call   1012fd <strcat>
  100b04:	83 c4 10             	add    $0x10,%esp
  100b07:	90                   	nop
  100b08:	8d 65 f8             	lea    -0x8(%ebp),%esp
  100b0b:	5b                   	pop    %ebx
  100b0c:	5f                   	pop    %edi
  100b0d:	5d                   	pop    %ebp
  100b0e:	c3                   	ret    

00100b0f <printk>:
  100b0f:	55                   	push   %ebp
  100b10:	89 e5                	mov    %esp,%ebp
  100b12:	53                   	push   %ebx
  100b13:	83 ec 34             	sub    $0x34,%esp
  100b16:	e8 e5 14 00 00       	call   102000 <__x86.get_pc_thunk.bx>
  100b1b:	81 c3 e5 24 00 00    	add    $0x24e5,%ebx
  100b21:	8d 83 00 10 10 00    	lea    0x101000(%ebx),%eax
  100b27:	89 45 f0             	mov    %eax,-0x10(%ebp)
  100b2a:	83 ec 08             	sub    $0x8,%esp
  100b2d:	ff 75 08             	pushl  0x8(%ebp)
  100b30:	ff 75 f0             	pushl  -0x10(%ebp)
  100b33:	e8 7f 07 00 00       	call   1012b7 <strcpy>
  100b38:	83 c4 10             	add    $0x10,%esp
  100b3b:	8d 45 0c             	lea    0xc(%ebp),%eax
  100b3e:	89 45 cc             	mov    %eax,-0x34(%ebp)
  100b41:	c7 45 f4 00 00 00 00 	movl   $0x0,-0xc(%ebp)
  100b48:	e9 9e 01 00 00       	jmp    100ceb <printk+0x1dc>
  100b4d:	8b 55 f4             	mov    -0xc(%ebp),%edx
  100b50:	8b 45 f0             	mov    -0x10(%ebp),%eax
  100b53:	01 d0                	add    %edx,%eax
  100b55:	89 45 ec             	mov    %eax,-0x14(%ebp)
  100b58:	8b 45 ec             	mov    -0x14(%ebp),%eax
  100b5b:	0f b6 00             	movzbl (%eax),%eax
  100b5e:	3c 25                	cmp    $0x25,%al
  100b60:	0f 85 81 01 00 00    	jne    100ce7 <printk+0x1d8>
  100b66:	8b 45 ec             	mov    -0x14(%ebp),%eax
  100b69:	83 c0 01             	add    $0x1,%eax
  100b6c:	0f b6 00             	movzbl (%eax),%eax
  100b6f:	3c 73                	cmp    $0x73,%al
  100b71:	75 43                	jne    100bb6 <printk+0xa7>
  100b73:	8b 45 cc             	mov    -0x34(%ebp),%eax
  100b76:	8d 50 04             	lea    0x4(%eax),%edx
  100b79:	89 55 cc             	mov    %edx,-0x34(%ebp)
  100b7c:	8b 00                	mov    (%eax),%eax
  100b7e:	89 45 d0             	mov    %eax,-0x30(%ebp)
  100b81:	8b 45 f4             	mov    -0xc(%ebp),%eax
  100b84:	83 ec 04             	sub    $0x4,%esp
  100b87:	50                   	push   %eax
  100b88:	ff 75 d0             	pushl  -0x30(%ebp)
  100b8b:	ff 75 f0             	pushl  -0x10(%ebp)
  100b8e:	e8 da fe ff ff       	call   100a6d <insert_str>
  100b93:	83 c4 10             	add    $0x10,%esp
  100b96:	83 ec 0c             	sub    $0xc,%esp
  100b99:	ff 75 d0             	pushl  -0x30(%ebp)
  100b9c:	e8 e5 06 00 00       	call   101286 <strlen>
  100ba1:	83 c4 10             	add    $0x10,%esp
  100ba4:	89 c2                	mov    %eax,%edx
  100ba6:	8b 45 f4             	mov    -0xc(%ebp),%eax
  100ba9:	01 d0                	add    %edx,%eax
  100bab:	83 e8 01             	sub    $0x1,%eax
  100bae:	89 45 f4             	mov    %eax,-0xc(%ebp)
  100bb1:	e9 31 01 00 00       	jmp    100ce7 <printk+0x1d8>
  100bb6:	8b 45 ec             	mov    -0x14(%ebp),%eax
  100bb9:	83 c0 01             	add    $0x1,%eax
  100bbc:	0f b6 00             	movzbl (%eax),%eax
  100bbf:	3c 64                	cmp    $0x64,%al
  100bc1:	75 55                	jne    100c18 <printk+0x109>
  100bc3:	8b 45 cc             	mov    -0x34(%ebp),%eax
  100bc6:	8d 50 04             	lea    0x4(%eax),%edx
  100bc9:	89 55 cc             	mov    %edx,-0x34(%ebp)
  100bcc:	8b 00                	mov    (%eax),%eax
  100bce:	89 45 d8             	mov    %eax,-0x28(%ebp)
  100bd1:	8b 45 d8             	mov    -0x28(%ebp),%eax
  100bd4:	83 ec 0c             	sub    $0xc,%esp
  100bd7:	50                   	push   %eax
  100bd8:	e8 59 07 00 00       	call   101336 <uintTostring>
  100bdd:	83 c4 10             	add    $0x10,%esp
  100be0:	89 45 d4             	mov    %eax,-0x2c(%ebp)
  100be3:	8b 45 f4             	mov    -0xc(%ebp),%eax
  100be6:	83 ec 04             	sub    $0x4,%esp
  100be9:	50                   	push   %eax
  100bea:	ff 75 d4             	pushl  -0x2c(%ebp)
  100bed:	ff 75 f0             	pushl  -0x10(%ebp)
  100bf0:	e8 78 fe ff ff       	call   100a6d <insert_str>
  100bf5:	83 c4 10             	add    $0x10,%esp
  100bf8:	83 ec 0c             	sub    $0xc,%esp
  100bfb:	ff 75 d4             	pushl  -0x2c(%ebp)
  100bfe:	e8 83 06 00 00       	call   101286 <strlen>
  100c03:	83 c4 10             	add    $0x10,%esp
  100c06:	89 c2                	mov    %eax,%edx
  100c08:	8b 45 f4             	mov    -0xc(%ebp),%eax
  100c0b:	01 d0                	add    %edx,%eax
  100c0d:	83 e8 01             	sub    $0x1,%eax
  100c10:	89 45 f4             	mov    %eax,-0xc(%ebp)
  100c13:	e9 cf 00 00 00       	jmp    100ce7 <printk+0x1d8>
  100c18:	8b 45 ec             	mov    -0x14(%ebp),%eax
  100c1b:	83 c0 01             	add    $0x1,%eax
  100c1e:	0f b6 00             	movzbl (%eax),%eax
  100c21:	3c 63                	cmp    $0x63,%al
  100c23:	0f 84 be 00 00 00    	je     100ce7 <printk+0x1d8>
  100c29:	8b 45 ec             	mov    -0x14(%ebp),%eax
  100c2c:	83 c0 01             	add    $0x1,%eax
  100c2f:	0f b6 00             	movzbl (%eax),%eax
  100c32:	3c 48                	cmp    $0x48,%al
  100c34:	75 53                	jne    100c89 <printk+0x17a>
  100c36:	8b 45 cc             	mov    -0x34(%ebp),%eax
  100c39:	8d 50 04             	lea    0x4(%eax),%edx
  100c3c:	89 55 cc             	mov    %edx,-0x34(%ebp)
  100c3f:	8b 00                	mov    (%eax),%eax
  100c41:	89 45 e0             	mov    %eax,-0x20(%ebp)
  100c44:	83 ec 08             	sub    $0x8,%esp
  100c47:	6a 01                	push   $0x1
  100c49:	ff 75 e0             	pushl  -0x20(%ebp)
  100c4c:	e8 24 04 00 00       	call   101075 <num2hexstr>
  100c51:	83 c4 10             	add    $0x10,%esp
  100c54:	89 45 dc             	mov    %eax,-0x24(%ebp)
  100c57:	8b 45 f4             	mov    -0xc(%ebp),%eax
  100c5a:	83 ec 04             	sub    $0x4,%esp
  100c5d:	50                   	push   %eax
  100c5e:	ff 75 dc             	pushl  -0x24(%ebp)
  100c61:	ff 75 f0             	pushl  -0x10(%ebp)
  100c64:	e8 04 fe ff ff       	call   100a6d <insert_str>
  100c69:	83 c4 10             	add    $0x10,%esp
  100c6c:	83 ec 0c             	sub    $0xc,%esp
  100c6f:	ff 75 dc             	pushl  -0x24(%ebp)
  100c72:	e8 0f 06 00 00       	call   101286 <strlen>
  100c77:	83 c4 10             	add    $0x10,%esp
  100c7a:	89 c2                	mov    %eax,%edx
  100c7c:	8b 45 f4             	mov    -0xc(%ebp),%eax
  100c7f:	01 d0                	add    %edx,%eax
  100c81:	83 e8 01             	sub    $0x1,%eax
  100c84:	89 45 f4             	mov    %eax,-0xc(%ebp)
  100c87:	eb 5e                	jmp    100ce7 <printk+0x1d8>
  100c89:	8b 45 ec             	mov    -0x14(%ebp),%eax
  100c8c:	83 c0 01             	add    $0x1,%eax
  100c8f:	0f b6 00             	movzbl (%eax),%eax
  100c92:	3c 68                	cmp    $0x68,%al
  100c94:	75 51                	jne    100ce7 <printk+0x1d8>
  100c96:	8b 45 cc             	mov    -0x34(%ebp),%eax
  100c99:	8d 50 04             	lea    0x4(%eax),%edx
  100c9c:	89 55 cc             	mov    %edx,-0x34(%ebp)
  100c9f:	8b 00                	mov    (%eax),%eax
  100ca1:	89 45 e8             	mov    %eax,-0x18(%ebp)
  100ca4:	83 ec 08             	sub    $0x8,%esp
  100ca7:	6a 00                	push   $0x0
  100ca9:	ff 75 e8             	pushl  -0x18(%ebp)
  100cac:	e8 c4 03 00 00       	call   101075 <num2hexstr>
  100cb1:	83 c4 10             	add    $0x10,%esp
  100cb4:	89 45 e4             	mov    %eax,-0x1c(%ebp)
  100cb7:	8b 45 f4             	mov    -0xc(%ebp),%eax
  100cba:	83 ec 04             	sub    $0x4,%esp
  100cbd:	50                   	push   %eax
  100cbe:	ff 75 e4             	pushl  -0x1c(%ebp)
  100cc1:	ff 75 f0             	pushl  -0x10(%ebp)
  100cc4:	e8 a4 fd ff ff       	call   100a6d <insert_str>
  100cc9:	83 c4 10             	add    $0x10,%esp
  100ccc:	83 ec 0c             	sub    $0xc,%esp
  100ccf:	ff 75 e4             	pushl  -0x1c(%ebp)
  100cd2:	e8 af 05 00 00       	call   101286 <strlen>
  100cd7:	83 c4 10             	add    $0x10,%esp
  100cda:	89 c2                	mov    %eax,%edx
  100cdc:	8b 45 f4             	mov    -0xc(%ebp),%eax
  100cdf:	01 d0                	add    %edx,%eax
  100ce1:	83 e8 01             	sub    $0x1,%eax
  100ce4:	89 45 f4             	mov    %eax,-0xc(%ebp)
  100ce7:	83 45 f4 01          	addl   $0x1,-0xc(%ebp)
  100ceb:	8b 55 f4             	mov    -0xc(%ebp),%edx
  100cee:	8b 45 f0             	mov    -0x10(%ebp),%eax
  100cf1:	01 d0                	add    %edx,%eax
  100cf3:	0f b6 00             	movzbl (%eax),%eax
  100cf6:	84 c0                	test   %al,%al
  100cf8:	0f 85 4f fe ff ff    	jne    100b4d <printk+0x3e>
  100cfe:	83 ec 0c             	sub    $0xc,%esp
  100d01:	ff 75 f0             	pushl  -0x10(%ebp)
  100d04:	e8 6c 0c 00 00       	call   101975 <kputs>
  100d09:	83 c4 10             	add    $0x10,%esp
  100d0c:	90                   	nop
  100d0d:	8b 5d fc             	mov    -0x4(%ebp),%ebx
  100d10:	c9                   	leave  
  100d11:	c3                   	ret    

00100d12 <printbasic>:
  100d12:	55                   	push   %ebp
  100d13:	89 e5                	mov    %esp,%ebp
  100d15:	83 ec 18             	sub    $0x18,%esp
  100d18:	e8 e7 12 00 00       	call   102004 <__x86.get_pc_thunk.ax>
  100d1d:	05 e3 22 00 00       	add    $0x22e3,%eax
  100d22:	8b 45 08             	mov    0x8(%ebp),%eax
  100d25:	89 45 f0             	mov    %eax,-0x10(%ebp)
  100d28:	c7 45 f4 00 00 00 00 	movl   $0x0,-0xc(%ebp)
  100d2f:	8b 45 f0             	mov    -0x10(%ebp),%eax
  100d32:	89 45 ec             	mov    %eax,-0x14(%ebp)
  100d35:	eb 3a                	jmp    100d71 <printbasic+0x5f>
  100d37:	8b 55 f4             	mov    -0xc(%ebp),%edx
  100d3a:	8b 45 ec             	mov    -0x14(%ebp),%eax
  100d3d:	01 d0                	add    %edx,%eax
  100d3f:	0f b6 00             	movzbl (%eax),%eax
  100d42:	3c 25                	cmp    $0x25,%al
  100d44:	75 27                	jne    100d6d <printbasic+0x5b>
  100d46:	8b 45 f4             	mov    -0xc(%ebp),%eax
  100d49:	8d 50 01             	lea    0x1(%eax),%edx
  100d4c:	8b 45 ec             	mov    -0x14(%ebp),%eax
  100d4f:	01 d0                	add    %edx,%eax
  100d51:	0f b6 00             	movzbl (%eax),%eax
  100d54:	3c 73                	cmp    $0x73,%al
  100d56:	75 15                	jne    100d6d <printbasic+0x5b>
  100d58:	8b 45 f4             	mov    -0xc(%ebp),%eax
  100d5b:	83 ec 04             	sub    $0x4,%esp
  100d5e:	50                   	push   %eax
  100d5f:	ff 75 0c             	pushl  0xc(%ebp)
  100d62:	ff 75 08             	pushl  0x8(%ebp)
  100d65:	e8 03 fd ff ff       	call   100a6d <insert_str>
  100d6a:	83 c4 10             	add    $0x10,%esp
  100d6d:	83 45 f4 01          	addl   $0x1,-0xc(%ebp)
  100d71:	8b 55 f4             	mov    -0xc(%ebp),%edx
  100d74:	8b 45 ec             	mov    -0x14(%ebp),%eax
  100d77:	01 d0                	add    %edx,%eax
  100d79:	0f b6 00             	movzbl (%eax),%eax
  100d7c:	84 c0                	test   %al,%al
  100d7e:	75 b7                	jne    100d37 <printbasic+0x25>
  100d80:	90                   	nop
  100d81:	c9                   	leave  
  100d82:	c3                   	ret    

00100d83 <printk_color>:
  100d83:	55                   	push   %ebp
  100d84:	89 e5                	mov    %esp,%ebp
  100d86:	53                   	push   %ebx
  100d87:	83 ec 34             	sub    $0x34,%esp
  100d8a:	e8 71 12 00 00       	call   102000 <__x86.get_pc_thunk.bx>
  100d8f:	81 c3 71 22 00 00    	add    $0x2271,%ebx
  100d95:	8d 83 80 10 10 00    	lea    0x101080(%ebx),%eax
  100d9b:	89 45 f0             	mov    %eax,-0x10(%ebp)
  100d9e:	83 ec 08             	sub    $0x8,%esp
  100da1:	ff 75 08             	pushl  0x8(%ebp)
  100da4:	ff 75 f0             	pushl  -0x10(%ebp)
  100da7:	e8 0b 05 00 00       	call   1012b7 <strcpy>
  100dac:	83 c4 10             	add    $0x10,%esp
  100daf:	8d 45 14             	lea    0x14(%ebp),%eax
  100db2:	89 45 cc             	mov    %eax,-0x34(%ebp)
  100db5:	c7 45 f4 00 00 00 00 	movl   $0x0,-0xc(%ebp)
  100dbc:	e9 9e 01 00 00       	jmp    100f5f <printk_color+0x1dc>
  100dc1:	8b 55 f4             	mov    -0xc(%ebp),%edx
  100dc4:	8b 45 f0             	mov    -0x10(%ebp),%eax
  100dc7:	01 d0                	add    %edx,%eax
  100dc9:	89 45 ec             	mov    %eax,-0x14(%ebp)
  100dcc:	8b 45 ec             	mov    -0x14(%ebp),%eax
  100dcf:	0f b6 00             	movzbl (%eax),%eax
  100dd2:	3c 25                	cmp    $0x25,%al
  100dd4:	0f 85 81 01 00 00    	jne    100f5b <printk_color+0x1d8>
  100dda:	8b 45 ec             	mov    -0x14(%ebp),%eax
  100ddd:	83 c0 01             	add    $0x1,%eax
  100de0:	0f b6 00             	movzbl (%eax),%eax
  100de3:	3c 73                	cmp    $0x73,%al
  100de5:	75 43                	jne    100e2a <printk_color+0xa7>
  100de7:	8b 45 cc             	mov    -0x34(%ebp),%eax
  100dea:	8d 50 04             	lea    0x4(%eax),%edx
  100ded:	89 55 cc             	mov    %edx,-0x34(%ebp)
  100df0:	8b 00                	mov    (%eax),%eax
  100df2:	89 45 d0             	mov    %eax,-0x30(%ebp)
  100df5:	8b 45 f4             	mov    -0xc(%ebp),%eax
  100df8:	83 ec 04             	sub    $0x4,%esp
  100dfb:	50                   	push   %eax
  100dfc:	ff 75 d0             	pushl  -0x30(%ebp)
  100dff:	ff 75 f0             	pushl  -0x10(%ebp)
  100e02:	e8 66 fc ff ff       	call   100a6d <insert_str>
  100e07:	83 c4 10             	add    $0x10,%esp
  100e0a:	83 ec 0c             	sub    $0xc,%esp
  100e0d:	ff 75 d0             	pushl  -0x30(%ebp)
  100e10:	e8 71 04 00 00       	call   101286 <strlen>
  100e15:	83 c4 10             	add    $0x10,%esp
  100e18:	89 c2                	mov    %eax,%edx
  100e1a:	8b 45 f4             	mov    -0xc(%ebp),%eax
  100e1d:	01 d0                	add    %edx,%eax
  100e1f:	83 e8 01             	sub    $0x1,%eax
  100e22:	89 45 f4             	mov    %eax,-0xc(%ebp)
  100e25:	e9 31 01 00 00       	jmp    100f5b <printk_color+0x1d8>
  100e2a:	8b 45 ec             	mov    -0x14(%ebp),%eax
  100e2d:	83 c0 01             	add    $0x1,%eax
  100e30:	0f b6 00             	movzbl (%eax),%eax
  100e33:	3c 64                	cmp    $0x64,%al
  100e35:	75 55                	jne    100e8c <printk_color+0x109>
  100e37:	8b 45 cc             	mov    -0x34(%ebp),%eax
  100e3a:	8d 50 04             	lea    0x4(%eax),%edx
  100e3d:	89 55 cc             	mov    %edx,-0x34(%ebp)
  100e40:	8b 00                	mov    (%eax),%eax
  100e42:	89 45 d8             	mov    %eax,-0x28(%ebp)
  100e45:	8b 45 d8             	mov    -0x28(%ebp),%eax
  100e48:	83 ec 0c             	sub    $0xc,%esp
  100e4b:	50                   	push   %eax
  100e4c:	e8 e5 04 00 00       	call   101336 <uintTostring>
  100e51:	83 c4 10             	add    $0x10,%esp
  100e54:	89 45 d4             	mov    %eax,-0x2c(%ebp)
  100e57:	8b 45 f4             	mov    -0xc(%ebp),%eax
  100e5a:	83 ec 04             	sub    $0x4,%esp
  100e5d:	50                   	push   %eax
  100e5e:	ff 75 d4             	pushl  -0x2c(%ebp)
  100e61:	ff 75 f0             	pushl  -0x10(%ebp)
  100e64:	e8 04 fc ff ff       	call   100a6d <insert_str>
  100e69:	83 c4 10             	add    $0x10,%esp
  100e6c:	83 ec 0c             	sub    $0xc,%esp
  100e6f:	ff 75 d4             	pushl  -0x2c(%ebp)
  100e72:	e8 0f 04 00 00       	call   101286 <strlen>
  100e77:	83 c4 10             	add    $0x10,%esp
  100e7a:	89 c2                	mov    %eax,%edx
  100e7c:	8b 45 f4             	mov    -0xc(%ebp),%eax
  100e7f:	01 d0                	add    %edx,%eax
  100e81:	83 e8 01             	sub    $0x1,%eax
  100e84:	89 45 f4             	mov    %eax,-0xc(%ebp)
  100e87:	e9 cf 00 00 00       	jmp    100f5b <printk_color+0x1d8>
  100e8c:	8b 45 ec             	mov    -0x14(%ebp),%eax
  100e8f:	83 c0 01             	add    $0x1,%eax
  100e92:	0f b6 00             	movzbl (%eax),%eax
  100e95:	3c 63                	cmp    $0x63,%al
  100e97:	0f 84 be 00 00 00    	je     100f5b <printk_color+0x1d8>
  100e9d:	8b 45 ec             	mov    -0x14(%ebp),%eax
  100ea0:	83 c0 01             	add    $0x1,%eax
  100ea3:	0f b6 00             	movzbl (%eax),%eax
  100ea6:	3c 48                	cmp    $0x48,%al
  100ea8:	75 53                	jne    100efd <printk_color+0x17a>
  100eaa:	8b 45 cc             	mov    -0x34(%ebp),%eax
  100ead:	8d 50 04             	lea    0x4(%eax),%edx
  100eb0:	89 55 cc             	mov    %edx,-0x34(%ebp)
  100eb3:	8b 00                	mov    (%eax),%eax
  100eb5:	89 45 e0             	mov    %eax,-0x20(%ebp)
  100eb8:	83 ec 08             	sub    $0x8,%esp
  100ebb:	6a 01                	push   $0x1
  100ebd:	ff 75 e0             	pushl  -0x20(%ebp)
  100ec0:	e8 b0 01 00 00       	call   101075 <num2hexstr>
  100ec5:	83 c4 10             	add    $0x10,%esp
  100ec8:	89 45 dc             	mov    %eax,-0x24(%ebp)
  100ecb:	8b 45 f4             	mov    -0xc(%ebp),%eax
  100ece:	83 ec 04             	sub    $0x4,%esp
  100ed1:	50                   	push   %eax
  100ed2:	ff 75 dc             	pushl  -0x24(%ebp)
  100ed5:	ff 75 f0             	pushl  -0x10(%ebp)
  100ed8:	e8 90 fb ff ff       	call   100a6d <insert_str>
  100edd:	83 c4 10             	add    $0x10,%esp
  100ee0:	83 ec 0c             	sub    $0xc,%esp
  100ee3:	ff 75 dc             	pushl  -0x24(%ebp)
  100ee6:	e8 9b 03 00 00       	call   101286 <strlen>
  100eeb:	83 c4 10             	add    $0x10,%esp
  100eee:	89 c2                	mov    %eax,%edx
  100ef0:	8b 45 f4             	mov    -0xc(%ebp),%eax
  100ef3:	01 d0                	add    %edx,%eax
  100ef5:	83 e8 01             	sub    $0x1,%eax
  100ef8:	89 45 f4             	mov    %eax,-0xc(%ebp)
  100efb:	eb 5e                	jmp    100f5b <printk_color+0x1d8>
  100efd:	8b 45 ec             	mov    -0x14(%ebp),%eax
  100f00:	83 c0 01             	add    $0x1,%eax
  100f03:	0f b6 00             	movzbl (%eax),%eax
  100f06:	3c 68                	cmp    $0x68,%al
  100f08:	75 51                	jne    100f5b <printk_color+0x1d8>
  100f0a:	8b 45 cc             	mov    -0x34(%ebp),%eax
  100f0d:	8d 50 04             	lea    0x4(%eax),%edx
  100f10:	89 55 cc             	mov    %edx,-0x34(%ebp)
  100f13:	8b 00                	mov    (%eax),%eax
  100f15:	89 45 e8             	mov    %eax,-0x18(%ebp)
  100f18:	83 ec 08             	sub    $0x8,%esp
  100f1b:	6a 00                	push   $0x0
  100f1d:	ff 75 e8             	pushl  -0x18(%ebp)
  100f20:	e8 50 01 00 00       	call   101075 <num2hexstr>
  100f25:	83 c4 10             	add    $0x10,%esp
  100f28:	89 45 e4             	mov    %eax,-0x1c(%ebp)
  100f2b:	8b 45 f4             	mov    -0xc(%ebp),%eax
  100f2e:	83 ec 04             	sub    $0x4,%esp
  100f31:	50                   	push   %eax
  100f32:	ff 75 e4             	pushl  -0x1c(%ebp)
  100f35:	ff 75 f0             	pushl  -0x10(%ebp)
  100f38:	e8 30 fb ff ff       	call   100a6d <insert_str>
  100f3d:	83 c4 10             	add    $0x10,%esp
  100f40:	83 ec 0c             	sub    $0xc,%esp
  100f43:	ff 75 e4             	pushl  -0x1c(%ebp)
  100f46:	e8 3b 03 00 00       	call   101286 <strlen>
  100f4b:	83 c4 10             	add    $0x10,%esp
  100f4e:	89 c2                	mov    %eax,%edx
  100f50:	8b 45 f4             	mov    -0xc(%ebp),%eax
  100f53:	01 d0                	add    %edx,%eax
  100f55:	83 e8 01             	sub    $0x1,%eax
  100f58:	89 45 f4             	mov    %eax,-0xc(%ebp)
  100f5b:	83 45 f4 01          	addl   $0x1,-0xc(%ebp)
  100f5f:	8b 55 f4             	mov    -0xc(%ebp),%edx
  100f62:	8b 45 f0             	mov    -0x10(%ebp),%eax
  100f65:	01 d0                	add    %edx,%eax
  100f67:	0f b6 00             	movzbl (%eax),%eax
  100f6a:	84 c0                	test   %al,%al
  100f6c:	0f 85 4f fe ff ff    	jne    100dc1 <printk_color+0x3e>
  100f72:	83 ec 04             	sub    $0x4,%esp
  100f75:	ff 75 10             	pushl  0x10(%ebp)
  100f78:	ff 75 0c             	pushl  0xc(%ebp)
  100f7b:	ff 75 f0             	pushl  -0x10(%ebp)
  100f7e:	e8 ac 09 00 00       	call   10192f <kputs_color>
  100f83:	83 c4 10             	add    $0x10,%esp
  100f86:	90                   	nop
  100f87:	8b 5d fc             	mov    -0x4(%ebp),%ebx
  100f8a:	c9                   	leave  
  100f8b:	c3                   	ret    

00100f8c <printkDebug>:
  100f8c:	55                   	push   %ebp
  100f8d:	89 e5                	mov    %esp,%ebp
  100f8f:	53                   	push   %ebx
  100f90:	83 ec 04             	sub    $0x4,%esp
  100f93:	e8 68 10 00 00       	call   102000 <__x86.get_pc_thunk.bx>
  100f98:	81 c3 68 20 00 00    	add    $0x2068,%ebx
  100f9e:	83 ec 0c             	sub    $0xc,%esp
  100fa1:	8d 83 3c 00 00 00    	lea    0x3c(%ebx),%eax
  100fa7:	50                   	push   %eax
  100fa8:	e8 62 fb ff ff       	call   100b0f <printk>
  100fad:	83 c4 10             	add    $0x10,%esp
  100fb0:	83 ec 04             	sub    $0x4,%esp
  100fb3:	6a 0f                	push   $0xf
  100fb5:	6a 00                	push   $0x0
  100fb7:	8d 83 47 00 00 00    	lea    0x47(%ebx),%eax
  100fbd:	50                   	push   %eax
  100fbe:	e8 c0 fd ff ff       	call   100d83 <printk_color>
  100fc3:	83 c4 10             	add    $0x10,%esp
  100fc6:	90                   	nop
  100fc7:	8b 5d fc             	mov    -0x4(%ebp),%ebx
  100fca:	c9                   	leave  
  100fcb:	c3                   	ret    

00100fcc <func>:
  100fcc:	55                   	push   %ebp
  100fcd:	89 e5                	mov    %esp,%ebp
  100fcf:	83 ec 28             	sub    $0x28,%esp
  100fd2:	e8 2d 10 00 00       	call   102004 <__x86.get_pc_thunk.ax>
  100fd7:	05 29 20 00 00       	add    $0x2029,%eax
  100fdc:	c7 45 e3 30 31 32 33 	movl   $0x33323130,-0x1d(%ebp)
  100fe3:	c7 45 e7 34 35 36 37 	movl   $0x37363534,-0x19(%ebp)
  100fea:	c7 45 eb 38 39 41 42 	movl   $0x42413938,-0x15(%ebp)
  100ff1:	c7 45 ef 43 44 45 46 	movl   $0x46454443,-0x11(%ebp)
  100ff8:	c6 45 f3 00          	movb   $0x0,-0xd(%ebp)
  100ffc:	83 7d 0c 00          	cmpl   $0x0,0xc(%ebp)
  101000:	75 1c                	jne    10101e <func+0x52>
  101002:	83 ec 08             	sub    $0x8,%esp
  101005:	8d 80 4f 00 00 00    	lea    0x4f(%eax),%eax
  10100b:	50                   	push   %eax
  10100c:	ff 75 08             	pushl  0x8(%ebp)
  10100f:	e8 a3 02 00 00       	call   1012b7 <strcpy>
  101014:	83 c4 10             	add    $0x10,%esp
  101017:	b8 00 00 00 00       	mov    $0x0,%eax
  10101c:	eb 55                	jmp    101073 <func+0xa7>
  10101e:	8b 45 0c             	mov    0xc(%ebp),%eax
  101021:	99                   	cltd   
  101022:	f7 7d 10             	idivl  0x10(%ebp)
  101025:	83 ec 04             	sub    $0x4,%esp
  101028:	ff 75 10             	pushl  0x10(%ebp)
  10102b:	50                   	push   %eax
  10102c:	ff 75 08             	pushl  0x8(%ebp)
  10102f:	e8 98 ff ff ff       	call   100fcc <func>
  101034:	83 c4 10             	add    $0x10,%esp
  101037:	83 ec 0c             	sub    $0xc,%esp
  10103a:	ff 75 08             	pushl  0x8(%ebp)
  10103d:	e8 44 02 00 00       	call   101286 <strlen>
  101042:	83 c4 10             	add    $0x10,%esp
  101045:	89 45 f4             	mov    %eax,-0xc(%ebp)
  101048:	8b 45 0c             	mov    0xc(%ebp),%eax
  10104b:	99                   	cltd   
  10104c:	f7 7d 10             	idivl  0x10(%ebp)
  10104f:	89 d1                	mov    %edx,%ecx
  101051:	8b 55 f4             	mov    -0xc(%ebp),%edx
  101054:	8b 45 08             	mov    0x8(%ebp),%eax
  101057:	01 c2                	add    %eax,%edx
  101059:	0f b6 44 0d e3       	movzbl -0x1d(%ebp,%ecx,1),%eax
  10105e:	88 02                	mov    %al,(%edx)
  101060:	8b 45 f4             	mov    -0xc(%ebp),%eax
  101063:	8d 50 01             	lea    0x1(%eax),%edx
  101066:	8b 45 08             	mov    0x8(%ebp),%eax
  101069:	01 d0                	add    %edx,%eax
  10106b:	c6 00 00             	movb   $0x0,(%eax)
  10106e:	b8 01 00 00 00       	mov    $0x1,%eax
  101073:	c9                   	leave  
  101074:	c3                   	ret    

00101075 <num2hexstr>:
  101075:	55                   	push   %ebp
  101076:	89 e5                	mov    %esp,%ebp
  101078:	53                   	push   %ebx
  101079:	83 ec 34             	sub    $0x34,%esp
  10107c:	e8 7f 0f 00 00       	call   102000 <__x86.get_pc_thunk.bx>
  101081:	81 c3 7f 1f 00 00    	add    $0x1f7f,%ebx
  101087:	83 7d 08 00          	cmpl   $0x0,0x8(%ebp)
  10108b:	0f 84 f1 00 00 00    	je     101182 <num2hexstr+0x10d>
  101091:	c6 83 00 11 10 00 30 	movb   $0x30,0x101100(%ebx)
  101098:	c6 83 01 11 10 00 78 	movb   $0x78,0x101101(%ebx)
  10109f:	c7 45 df 00 00 00 00 	movl   $0x0,-0x21(%ebp)
  1010a6:	c7 45 e3 00 00 00 00 	movl   $0x0,-0x1d(%ebp)
  1010ad:	c6 45 e7 00          	movb   $0x0,-0x19(%ebp)
  1010b1:	8d 45 df             	lea    -0x21(%ebp),%eax
  1010b4:	89 45 f0             	mov    %eax,-0x10(%ebp)
  1010b7:	83 ec 04             	sub    $0x4,%esp
  1010ba:	6a 10                	push   $0x10
  1010bc:	ff 75 08             	pushl  0x8(%ebp)
  1010bf:	ff 75 f0             	pushl  -0x10(%ebp)
  1010c2:	e8 05 ff ff ff       	call   100fcc <func>
  1010c7:	83 c4 10             	add    $0x10,%esp
  1010ca:	c7 45 d6 00 00 00 00 	movl   $0x0,-0x2a(%ebp)
  1010d1:	c7 45 da 00 00 00 00 	movl   $0x0,-0x26(%ebp)
  1010d8:	c6 45 de 00          	movb   $0x0,-0x22(%ebp)
  1010dc:	8d 45 d6             	lea    -0x2a(%ebp),%eax
  1010df:	89 45 ec             	mov    %eax,-0x14(%ebp)
  1010e2:	83 ec 08             	sub    $0x8,%esp
  1010e5:	ff 75 f0             	pushl  -0x10(%ebp)
  1010e8:	ff 75 ec             	pushl  -0x14(%ebp)
  1010eb:	e8 c7 01 00 00       	call   1012b7 <strcpy>
  1010f0:	83 c4 10             	add    $0x10,%esp
  1010f3:	83 ec 0c             	sub    $0xc,%esp
  1010f6:	8d 45 df             	lea    -0x21(%ebp),%eax
  1010f9:	50                   	push   %eax
  1010fa:	e8 87 01 00 00       	call   101286 <strlen>
  1010ff:	83 c4 10             	add    $0x10,%esp
  101102:	ba 08 00 00 00       	mov    $0x8,%edx
  101107:	29 c2                	sub    %eax,%edx
  101109:	89 d0                	mov    %edx,%eax
  10110b:	89 45 e8             	mov    %eax,-0x18(%ebp)
  10110e:	8b 45 e8             	mov    -0x18(%ebp),%eax
  101111:	8d 55 df             	lea    -0x21(%ebp),%edx
  101114:	01 c2                	add    %eax,%edx
  101116:	83 ec 08             	sub    $0x8,%esp
  101119:	8d 45 d6             	lea    -0x2a(%ebp),%eax
  10111c:	50                   	push   %eax
  10111d:	52                   	push   %edx
  10111e:	e8 94 01 00 00       	call   1012b7 <strcpy>
  101123:	83 c4 10             	add    $0x10,%esp
  101126:	c7 45 f4 00 00 00 00 	movl   $0x0,-0xc(%ebp)
  10112d:	eb 0f                	jmp    10113e <num2hexstr+0xc9>
  10112f:	8b 45 f4             	mov    -0xc(%ebp),%eax
  101132:	8d 55 df             	lea    -0x21(%ebp),%edx
  101135:	01 d0                	add    %edx,%eax
  101137:	c6 00 30             	movb   $0x30,(%eax)
  10113a:	83 45 f4 01          	addl   $0x1,-0xc(%ebp)
  10113e:	8b 45 f4             	mov    -0xc(%ebp),%eax
  101141:	3b 45 e8             	cmp    -0x18(%ebp),%eax
  101144:	7c e9                	jl     10112f <num2hexstr+0xba>
  101146:	83 7d 0c 00          	cmpl   $0x0,0xc(%ebp)
  10114a:	74 18                	je     101164 <num2hexstr+0xef>
  10114c:	8d 83 02 11 10 00    	lea    0x101102(%ebx),%eax
  101152:	83 ec 08             	sub    $0x8,%esp
  101155:	8d 55 df             	lea    -0x21(%ebp),%edx
  101158:	52                   	push   %edx
  101159:	50                   	push   %eax
  10115a:	e8 58 01 00 00       	call   1012b7 <strcpy>
  10115f:	83 c4 10             	add    $0x10,%esp
  101162:	eb 16                	jmp    10117a <num2hexstr+0x105>
  101164:	83 ec 08             	sub    $0x8,%esp
  101167:	8d 45 df             	lea    -0x21(%ebp),%eax
  10116a:	50                   	push   %eax
  10116b:	8d 83 00 11 10 00    	lea    0x101100(%ebx),%eax
  101171:	50                   	push   %eax
  101172:	e8 40 01 00 00       	call   1012b7 <strcpy>
  101177:	83 c4 10             	add    $0x10,%esp
  10117a:	8d 83 00 11 10 00    	lea    0x101100(%ebx),%eax
  101180:	eb 14                	jmp    101196 <num2hexstr+0x121>
  101182:	83 7d 0c 00          	cmpl   $0x0,0xc(%ebp)
  101186:	74 08                	je     101190 <num2hexstr+0x11b>
  101188:	8d 83 50 00 00 00    	lea    0x50(%ebx),%eax
  10118e:	eb 06                	jmp    101196 <num2hexstr+0x121>
  101190:	8d 83 5b 00 00 00    	lea    0x5b(%ebx),%eax
  101196:	8b 5d fc             	mov    -0x4(%ebp),%ebx
  101199:	c9                   	leave  
  10119a:	c3                   	ret    

0010119b <memcpy>:
  10119b:	55                   	push   %ebp
  10119c:	89 e5                	mov    %esp,%ebp
  10119e:	e8 61 0e 00 00       	call   102004 <__x86.get_pc_thunk.ax>
  1011a3:	05 5d 1e 00 00       	add    $0x1e5d,%eax
  1011a8:	eb 17                	jmp    1011c1 <memcpy+0x26>
  1011aa:	8b 45 0c             	mov    0xc(%ebp),%eax
  1011ad:	0f b6 10             	movzbl (%eax),%edx
  1011b0:	8b 45 08             	mov    0x8(%ebp),%eax
  1011b3:	88 10                	mov    %dl,(%eax)
  1011b5:	83 45 08 01          	addl   $0x1,0x8(%ebp)
  1011b9:	83 45 0c 01          	addl   $0x1,0xc(%ebp)
  1011bd:	83 6d 10 01          	subl   $0x1,0x10(%ebp)
  1011c1:	83 7d 10 00          	cmpl   $0x0,0x10(%ebp)
  1011c5:	75 e3                	jne    1011aa <memcpy+0xf>
  1011c7:	90                   	nop
  1011c8:	5d                   	pop    %ebp
  1011c9:	c3                   	ret    

001011ca <memset>:
  1011ca:	55                   	push   %ebp
  1011cb:	89 e5                	mov    %esp,%ebp
  1011cd:	83 ec 14             	sub    $0x14,%esp
  1011d0:	e8 2f 0e 00 00       	call   102004 <__x86.get_pc_thunk.ax>
  1011d5:	05 2b 1e 00 00       	add    $0x1e2b,%eax
  1011da:	8b 45 0c             	mov    0xc(%ebp),%eax
  1011dd:	88 45 ec             	mov    %al,-0x14(%ebp)
  1011e0:	8b 45 08             	mov    0x8(%ebp),%eax
  1011e3:	89 45 fc             	mov    %eax,-0x4(%ebp)
  1011e6:	eb 13                	jmp    1011fb <memset+0x31>
  1011e8:	8b 45 fc             	mov    -0x4(%ebp),%eax
  1011eb:	8d 50 01             	lea    0x1(%eax),%edx
  1011ee:	89 55 fc             	mov    %edx,-0x4(%ebp)
  1011f1:	0f b6 55 ec          	movzbl -0x14(%ebp),%edx
  1011f5:	88 10                	mov    %dl,(%eax)
  1011f7:	83 6d 10 01          	subl   $0x1,0x10(%ebp)
  1011fb:	83 7d 10 00          	cmpl   $0x0,0x10(%ebp)
  1011ff:	75 e7                	jne    1011e8 <memset+0x1e>
  101201:	90                   	nop
  101202:	c9                   	leave  
  101203:	c3                   	ret    

00101204 <bzero>:
  101204:	55                   	push   %ebp
  101205:	89 e5                	mov    %esp,%ebp
  101207:	e8 f8 0d 00 00       	call   102004 <__x86.get_pc_thunk.ax>
  10120c:	05 f4 1d 00 00       	add    $0x1df4,%eax
  101211:	ff 75 0c             	pushl  0xc(%ebp)
  101214:	6a 00                	push   $0x0
  101216:	ff 75 08             	pushl  0x8(%ebp)
  101219:	e8 ac ff ff ff       	call   1011ca <memset>
  10121e:	83 c4 0c             	add    $0xc,%esp
  101221:	90                   	nop
  101222:	c9                   	leave  
  101223:	c3                   	ret    

00101224 <strcmp>:
  101224:	55                   	push   %ebp
  101225:	89 e5                	mov    %esp,%ebp
  101227:	e8 d8 0d 00 00       	call   102004 <__x86.get_pc_thunk.ax>
  10122c:	05 d4 1d 00 00       	add    $0x1dd4,%eax
  101231:	8b 45 08             	mov    0x8(%ebp),%eax
  101234:	0f b6 00             	movzbl (%eax),%eax
  101237:	84 c0                	test   %al,%al
  101239:	75 11                	jne    10124c <strcmp+0x28>
  10123b:	8b 45 0c             	mov    0xc(%ebp),%eax
  10123e:	0f b6 00             	movzbl (%eax),%eax
  101241:	84 c0                	test   %al,%al
  101243:	75 07                	jne    10124c <strcmp+0x28>
  101245:	b8 00 00 00 00       	mov    $0x0,%eax
  10124a:	eb 38                	jmp    101284 <strcmp+0x60>
  10124c:	8b 45 08             	mov    0x8(%ebp),%eax
  10124f:	0f b6 10             	movzbl (%eax),%edx
  101252:	8b 45 0c             	mov    0xc(%ebp),%eax
  101255:	0f b6 00             	movzbl (%eax),%eax
  101258:	38 c2                	cmp    %al,%dl
  10125a:	7e 07                	jle    101263 <strcmp+0x3f>
  10125c:	b8 01 00 00 00       	mov    $0x1,%eax
  101261:	eb 21                	jmp    101284 <strcmp+0x60>
  101263:	8b 45 08             	mov    0x8(%ebp),%eax
  101266:	0f b6 10             	movzbl (%eax),%edx
  101269:	8b 45 0c             	mov    0xc(%ebp),%eax
  10126c:	0f b6 00             	movzbl (%eax),%eax
  10126f:	38 c2                	cmp    %al,%dl
  101271:	7e 07                	jle    10127a <strcmp+0x56>
  101273:	b8 ff ff ff ff       	mov    $0xffffffff,%eax
  101278:	eb 0a                	jmp    101284 <strcmp+0x60>
  10127a:	83 45 08 01          	addl   $0x1,0x8(%ebp)
  10127e:	83 45 0c 01          	addl   $0x1,0xc(%ebp)
  101282:	eb ad                	jmp    101231 <strcmp+0xd>
  101284:	5d                   	pop    %ebp
  101285:	c3                   	ret    

00101286 <strlen>:
  101286:	55                   	push   %ebp
  101287:	89 e5                	mov    %esp,%ebp
  101289:	83 ec 10             	sub    $0x10,%esp
  10128c:	e8 73 0d 00 00       	call   102004 <__x86.get_pc_thunk.ax>
  101291:	05 6f 1d 00 00       	add    $0x1d6f,%eax
  101296:	c7 45 fc 00 00 00 00 	movl   $0x0,-0x4(%ebp)
  10129d:	eb 04                	jmp    1012a3 <strlen+0x1d>
  10129f:	83 45 fc 01          	addl   $0x1,-0x4(%ebp)
  1012a3:	8b 55 fc             	mov    -0x4(%ebp),%edx
  1012a6:	8b 45 08             	mov    0x8(%ebp),%eax
  1012a9:	01 d0                	add    %edx,%eax
  1012ab:	0f b6 00             	movzbl (%eax),%eax
  1012ae:	84 c0                	test   %al,%al
  1012b0:	75 ed                	jne    10129f <strlen+0x19>
  1012b2:	8b 45 fc             	mov    -0x4(%ebp),%eax
  1012b5:	c9                   	leave  
  1012b6:	c3                   	ret    

001012b7 <strcpy>:
  1012b7:	55                   	push   %ebp
  1012b8:	89 e5                	mov    %esp,%ebp
  1012ba:	83 ec 10             	sub    $0x10,%esp
  1012bd:	e8 42 0d 00 00       	call   102004 <__x86.get_pc_thunk.ax>
  1012c2:	05 3e 1d 00 00       	add    $0x1d3e,%eax
  1012c7:	8b 45 08             	mov    0x8(%ebp),%eax
  1012ca:	89 45 fc             	mov    %eax,-0x4(%ebp)
  1012cd:	eb 13                	jmp    1012e2 <strcpy+0x2b>
  1012cf:	8b 45 0c             	mov    0xc(%ebp),%eax
  1012d2:	0f b6 10             	movzbl (%eax),%edx
  1012d5:	8b 45 08             	mov    0x8(%ebp),%eax
  1012d8:	88 10                	mov    %dl,(%eax)
  1012da:	83 45 08 01          	addl   $0x1,0x8(%ebp)
  1012de:	83 45 0c 01          	addl   $0x1,0xc(%ebp)
  1012e2:	8b 45 0c             	mov    0xc(%ebp),%eax
  1012e5:	0f b6 00             	movzbl (%eax),%eax
  1012e8:	84 c0                	test   %al,%al
  1012ea:	75 e3                	jne    1012cf <strcpy+0x18>
  1012ec:	8b 45 08             	mov    0x8(%ebp),%eax
  1012ef:	c6 00 00             	movb   $0x0,(%eax)
  1012f2:	8b 45 fc             	mov    -0x4(%ebp),%eax
  1012f5:	89 45 08             	mov    %eax,0x8(%ebp)
  1012f8:	8b 45 08             	mov    0x8(%ebp),%eax
  1012fb:	c9                   	leave  
  1012fc:	c3                   	ret    

001012fd <strcat>:
  1012fd:	55                   	push   %ebp
  1012fe:	89 e5                	mov    %esp,%ebp
  101300:	83 ec 10             	sub    $0x10,%esp
  101303:	e8 fc 0c 00 00       	call   102004 <__x86.get_pc_thunk.ax>
  101308:	05 f8 1c 00 00       	add    $0x1cf8,%eax
  10130d:	8b 45 08             	mov    0x8(%ebp),%eax
  101310:	89 45 fc             	mov    %eax,-0x4(%ebp)
  101313:	eb 04                	jmp    101319 <strcat+0x1c>
  101315:	83 45 fc 01          	addl   $0x1,-0x4(%ebp)
  101319:	8b 45 fc             	mov    -0x4(%ebp),%eax
  10131c:	0f b6 00             	movzbl (%eax),%eax
  10131f:	84 c0                	test   %al,%al
  101321:	75 f2                	jne    101315 <strcat+0x18>
  101323:	ff 75 0c             	pushl  0xc(%ebp)
  101326:	ff 75 fc             	pushl  -0x4(%ebp)
  101329:	e8 89 ff ff ff       	call   1012b7 <strcpy>
  10132e:	83 c4 08             	add    $0x8,%esp
  101331:	8b 45 08             	mov    0x8(%ebp),%eax
  101334:	c9                   	leave  
  101335:	c3                   	ret    

00101336 <uintTostring>:
  101336:	55                   	push   %ebp
  101337:	89 e5                	mov    %esp,%ebp
  101339:	83 ec 28             	sub    $0x28,%esp
  10133c:	e8 c3 0c 00 00       	call   102004 <__x86.get_pc_thunk.ax>
  101341:	05 bf 1c 00 00       	add    $0x1cbf,%eax
  101346:	c6 45 da 30          	movb   $0x30,-0x26(%ebp)
  10134a:	c6 45 db 31          	movb   $0x31,-0x25(%ebp)
  10134e:	c6 45 dc 32          	movb   $0x32,-0x24(%ebp)
  101352:	c6 45 dd 33          	movb   $0x33,-0x23(%ebp)
  101356:	c6 45 de 34          	movb   $0x34,-0x22(%ebp)
  10135a:	c6 45 df 35          	movb   $0x35,-0x21(%ebp)
  10135e:	c6 45 e0 36          	movb   $0x36,-0x20(%ebp)
  101362:	c6 45 e1 37          	movb   $0x37,-0x1f(%ebp)
  101366:	c6 45 e2 38          	movb   $0x38,-0x1e(%ebp)
  10136a:	c6 45 e3 39          	movb   $0x39,-0x1d(%ebp)
  10136e:	8d 80 20 11 10 00    	lea    0x101120(%eax),%eax
  101374:	89 45 f4             	mov    %eax,-0xc(%ebp)
  101377:	8b 45 f4             	mov    -0xc(%ebp),%eax
  10137a:	89 45 ec             	mov    %eax,-0x14(%ebp)
  10137d:	c7 45 f0 00 00 00 00 	movl   $0x0,-0x10(%ebp)
  101384:	eb 46                	jmp    1013cc <uintTostring+0x96>
  101386:	8b 45 08             	mov    0x8(%ebp),%eax
  101389:	ba cd cc cc cc       	mov    $0xcccccccd,%edx
  10138e:	f7 e2                	mul    %edx
  101390:	89 d0                	mov    %edx,%eax
  101392:	c1 e8 03             	shr    $0x3,%eax
  101395:	89 45 e8             	mov    %eax,-0x18(%ebp)
  101398:	8b 55 e8             	mov    -0x18(%ebp),%edx
  10139b:	89 d0                	mov    %edx,%eax
  10139d:	c1 e0 02             	shl    $0x2,%eax
  1013a0:	01 d0                	add    %edx,%eax
  1013a2:	01 c0                	add    %eax,%eax
  1013a4:	89 c2                	mov    %eax,%edx
  1013a6:	8b 45 08             	mov    0x8(%ebp),%eax
  1013a9:	29 d0                	sub    %edx,%eax
  1013ab:	89 45 e4             	mov    %eax,-0x1c(%ebp)
  1013ae:	8b 45 e8             	mov    -0x18(%ebp),%eax
  1013b1:	89 45 08             	mov    %eax,0x8(%ebp)
  1013b4:	8d 55 da             	lea    -0x26(%ebp),%edx
  1013b7:	8b 45 e4             	mov    -0x1c(%ebp),%eax
  1013ba:	01 d0                	add    %edx,%eax
  1013bc:	0f b6 10             	movzbl (%eax),%edx
  1013bf:	8b 45 f4             	mov    -0xc(%ebp),%eax
  1013c2:	88 10                	mov    %dl,(%eax)
  1013c4:	83 45 f4 01          	addl   $0x1,-0xc(%ebp)
  1013c8:	83 45 f0 01          	addl   $0x1,-0x10(%ebp)
  1013cc:	83 7d 08 09          	cmpl   $0x9,0x8(%ebp)
  1013d0:	77 b4                	ja     101386 <uintTostring+0x50>
  1013d2:	8d 55 da             	lea    -0x26(%ebp),%edx
  1013d5:	8b 45 08             	mov    0x8(%ebp),%eax
  1013d8:	01 d0                	add    %edx,%eax
  1013da:	0f b6 10             	movzbl (%eax),%edx
  1013dd:	8b 45 f4             	mov    -0xc(%ebp),%eax
  1013e0:	88 10                	mov    %dl,(%eax)
  1013e2:	8b 45 f4             	mov    -0xc(%ebp),%eax
  1013e5:	83 c0 01             	add    $0x1,%eax
  1013e8:	c6 00 00             	movb   $0x0,(%eax)
  1013eb:	83 ec 0c             	sub    $0xc,%esp
  1013ee:	ff 75 ec             	pushl  -0x14(%ebp)
  1013f1:	e8 05 00 00 00       	call   1013fb <strrevers>
  1013f6:	83 c4 10             	add    $0x10,%esp
  1013f9:	c9                   	leave  
  1013fa:	c3                   	ret    

001013fb <strrevers>:
  1013fb:	55                   	push   %ebp
  1013fc:	89 e5                	mov    %esp,%ebp
  1013fe:	83 ec 20             	sub    $0x20,%esp
  101401:	e8 fe 0b 00 00       	call   102004 <__x86.get_pc_thunk.ax>
  101406:	05 fa 1b 00 00       	add    $0x1bfa,%eax
  10140b:	8b 45 08             	mov    0x8(%ebp),%eax
  10140e:	89 45 f4             	mov    %eax,-0xc(%ebp)
  101411:	ff 75 08             	pushl  0x8(%ebp)
  101414:	e8 6d fe ff ff       	call   101286 <strlen>
  101419:	83 c4 04             	add    $0x4,%esp
  10141c:	89 45 f0             	mov    %eax,-0x10(%ebp)
  10141f:	c7 45 fc 00 00 00 00 	movl   $0x0,-0x4(%ebp)
  101426:	83 6d f0 01          	subl   $0x1,-0x10(%ebp)
  10142a:	8b 45 f0             	mov    -0x10(%ebp),%eax
  10142d:	89 45 f8             	mov    %eax,-0x8(%ebp)
  101430:	eb 39                	jmp    10146b <strrevers+0x70>
  101432:	8b 55 f8             	mov    -0x8(%ebp),%edx
  101435:	8b 45 f4             	mov    -0xc(%ebp),%eax
  101438:	01 d0                	add    %edx,%eax
  10143a:	0f b6 00             	movzbl (%eax),%eax
  10143d:	88 45 ef             	mov    %al,-0x11(%ebp)
  101440:	8b 55 fc             	mov    -0x4(%ebp),%edx
  101443:	8b 45 f4             	mov    -0xc(%ebp),%eax
  101446:	01 d0                	add    %edx,%eax
  101448:	8b 4d f8             	mov    -0x8(%ebp),%ecx
  10144b:	8b 55 f4             	mov    -0xc(%ebp),%edx
  10144e:	01 ca                	add    %ecx,%edx
  101450:	0f b6 00             	movzbl (%eax),%eax
  101453:	88 02                	mov    %al,(%edx)
  101455:	8b 55 fc             	mov    -0x4(%ebp),%edx
  101458:	8b 45 f4             	mov    -0xc(%ebp),%eax
  10145b:	01 c2                	add    %eax,%edx
  10145d:	0f b6 45 ef          	movzbl -0x11(%ebp),%eax
  101461:	88 02                	mov    %al,(%edx)
  101463:	83 45 fc 01          	addl   $0x1,-0x4(%ebp)
  101467:	83 6d f8 01          	subl   $0x1,-0x8(%ebp)
  10146b:	8b 45 fc             	mov    -0x4(%ebp),%eax
  10146e:	3b 45 f8             	cmp    -0x8(%ebp),%eax
  101471:	7c bf                	jl     101432 <strrevers+0x37>
  101473:	8b 45 f4             	mov    -0xc(%ebp),%eax
  101476:	c9                   	leave  
  101477:	c3                   	ret    

00101478 <outb>:
  101478:	55                   	push   %ebp
  101479:	89 e5                	mov    %esp,%ebp
  10147b:	83 ec 08             	sub    $0x8,%esp
  10147e:	e8 81 0b 00 00       	call   102004 <__x86.get_pc_thunk.ax>
  101483:	05 7d 1b 00 00       	add    $0x1b7d,%eax
  101488:	8b 55 08             	mov    0x8(%ebp),%edx
  10148b:	8b 45 0c             	mov    0xc(%ebp),%eax
  10148e:	66 89 55 fc          	mov    %dx,-0x4(%ebp)
  101492:	88 45 f8             	mov    %al,-0x8(%ebp)
  101495:	0f b7 55 fc          	movzwl -0x4(%ebp),%edx
  101499:	0f b6 45 f8          	movzbl -0x8(%ebp),%eax
  10149d:	ee                   	out    %al,(%dx)
  10149e:	90                   	nop
  10149f:	c9                   	leave  
  1014a0:	c3                   	ret    

001014a1 <inb>:
  1014a1:	55                   	push   %ebp
  1014a2:	89 e5                	mov    %esp,%ebp
  1014a4:	83 ec 14             	sub    $0x14,%esp
  1014a7:	e8 58 0b 00 00       	call   102004 <__x86.get_pc_thunk.ax>
  1014ac:	05 54 1b 00 00       	add    $0x1b54,%eax
  1014b1:	8b 45 08             	mov    0x8(%ebp),%eax
  1014b4:	66 89 45 ec          	mov    %ax,-0x14(%ebp)
  1014b8:	0f b7 45 ec          	movzwl -0x14(%ebp),%eax
  1014bc:	89 c2                	mov    %eax,%edx
  1014be:	ec                   	in     (%dx),%al
  1014bf:	88 45 ff             	mov    %al,-0x1(%ebp)
  1014c2:	0f b6 45 ff          	movzbl -0x1(%ebp),%eax
  1014c6:	c9                   	leave  
  1014c7:	c3                   	ret    

001014c8 <inw>:
  1014c8:	55                   	push   %ebp
  1014c9:	89 e5                	mov    %esp,%ebp
  1014cb:	83 ec 14             	sub    $0x14,%esp
  1014ce:	e8 31 0b 00 00       	call   102004 <__x86.get_pc_thunk.ax>
  1014d3:	05 2d 1b 00 00       	add    $0x1b2d,%eax
  1014d8:	8b 45 08             	mov    0x8(%ebp),%eax
  1014db:	66 89 45 ec          	mov    %ax,-0x14(%ebp)
  1014df:	0f b7 45 ec          	movzwl -0x14(%ebp),%eax
  1014e3:	89 c2                	mov    %eax,%edx
  1014e5:	66 ed                	in     (%dx),%ax
  1014e7:	66 89 45 fe          	mov    %ax,-0x2(%ebp)
  1014eb:	0f b7 45 fe          	movzwl -0x2(%ebp),%eax
  1014ef:	c9                   	leave  
  1014f0:	c3                   	ret    

001014f1 <move_cursor>:
  1014f1:	55                   	push   %ebp
  1014f2:	89 e5                	mov    %esp,%ebp
  1014f4:	53                   	push   %ebx
  1014f5:	83 ec 14             	sub    $0x14,%esp
  1014f8:	e8 03 0b 00 00       	call   102000 <__x86.get_pc_thunk.bx>
  1014fd:	81 c3 03 1b 00 00    	add    $0x1b03,%ebx
  101503:	0f b6 83 41 11 10 00 	movzbl 0x101141(%ebx),%eax
  10150a:	0f b6 d0             	movzbl %al,%edx
  10150d:	89 d0                	mov    %edx,%eax
  10150f:	c1 e0 02             	shl    $0x2,%eax
  101512:	01 d0                	add    %edx,%eax
  101514:	c1 e0 04             	shl    $0x4,%eax
  101517:	89 c2                	mov    %eax,%edx
  101519:	0f b6 83 40 11 10 00 	movzbl 0x101140(%ebx),%eax
  101520:	0f b6 c0             	movzbl %al,%eax
  101523:	01 d0                	add    %edx,%eax
  101525:	66 89 45 f6          	mov    %ax,-0xa(%ebp)
  101529:	83 ec 08             	sub    $0x8,%esp
  10152c:	6a 0e                	push   $0xe
  10152e:	68 d4 03 00 00       	push   $0x3d4
  101533:	e8 40 ff ff ff       	call   101478 <outb>
  101538:	83 c4 10             	add    $0x10,%esp
  10153b:	0f b7 45 f6          	movzwl -0xa(%ebp),%eax
  10153f:	66 c1 e8 08          	shr    $0x8,%ax
  101543:	0f b6 c0             	movzbl %al,%eax
  101546:	83 ec 08             	sub    $0x8,%esp
  101549:	50                   	push   %eax
  10154a:	68 d5 03 00 00       	push   $0x3d5
  10154f:	e8 24 ff ff ff       	call   101478 <outb>
  101554:	83 c4 10             	add    $0x10,%esp
  101557:	83 ec 08             	sub    $0x8,%esp
  10155a:	6a 0f                	push   $0xf
  10155c:	68 d4 03 00 00       	push   $0x3d4
  101561:	e8 12 ff ff ff       	call   101478 <outb>
  101566:	83 c4 10             	add    $0x10,%esp
  101569:	0f b7 45 f6          	movzwl -0xa(%ebp),%eax
  10156d:	0f b6 c0             	movzbl %al,%eax
  101570:	83 ec 08             	sub    $0x8,%esp
  101573:	50                   	push   %eax
  101574:	68 d5 03 00 00       	push   $0x3d5
  101579:	e8 fa fe ff ff       	call   101478 <outb>
  10157e:	83 c4 10             	add    $0x10,%esp
  101581:	90                   	nop
  101582:	8b 5d fc             	mov    -0x4(%ebp),%ebx
  101585:	c9                   	leave  
  101586:	c3                   	ret    

00101587 <move_cursor_by_XY>:
  101587:	55                   	push   %ebp
  101588:	89 e5                	mov    %esp,%ebp
  10158a:	83 ec 18             	sub    $0x18,%esp
  10158d:	e8 72 0a 00 00       	call   102004 <__x86.get_pc_thunk.ax>
  101592:	05 6e 1a 00 00       	add    $0x1a6e,%eax
  101597:	8b 4d 08             	mov    0x8(%ebp),%ecx
  10159a:	8b 55 0c             	mov    0xc(%ebp),%edx
  10159d:	88 4d f4             	mov    %cl,-0xc(%ebp)
  1015a0:	88 55 f0             	mov    %dl,-0x10(%ebp)
  1015a3:	80 7d f4 4f          	cmpb   $0x4f,-0xc(%ebp)
  1015a7:	77 21                	ja     1015ca <move_cursor_by_XY+0x43>
  1015a9:	80 7d f0 18          	cmpb   $0x18,-0x10(%ebp)
  1015ad:	77 1b                	ja     1015ca <move_cursor_by_XY+0x43>
  1015af:	0f b6 55 f4          	movzbl -0xc(%ebp),%edx
  1015b3:	88 90 40 11 10 00    	mov    %dl,0x101140(%eax)
  1015b9:	0f b6 55 f0          	movzbl -0x10(%ebp),%edx
  1015bd:	88 90 41 11 10 00    	mov    %dl,0x101141(%eax)
  1015c3:	e8 29 ff ff ff       	call   1014f1 <move_cursor>
  1015c8:	eb 01                	jmp    1015cb <move_cursor_by_XY+0x44>
  1015ca:	90                   	nop
  1015cb:	c9                   	leave  
  1015cc:	c3                   	ret    

001015cd <clear_screen>:
  1015cd:	55                   	push   %ebp
  1015ce:	89 e5                	mov    %esp,%ebp
  1015d0:	53                   	push   %ebx
  1015d1:	83 ec 14             	sub    $0x14,%esp
  1015d4:	e8 27 0a 00 00       	call   102000 <__x86.get_pc_thunk.bx>
  1015d9:	81 c3 27 1a 00 00    	add    $0x1a27,%ebx
  1015df:	c6 83 40 11 10 00 00 	movb   $0x0,0x101140(%ebx)
  1015e6:	c6 83 41 11 10 00 00 	movb   $0x0,0x101141(%ebx)
  1015ed:	c7 45 f4 00 00 00 00 	movl   $0x0,-0xc(%ebp)
  1015f4:	eb 28                	jmp    10161e <clear_screen+0x51>
  1015f6:	c7 45 f0 00 00 00 00 	movl   $0x0,-0x10(%ebp)
  1015fd:	eb 15                	jmp    101614 <clear_screen+0x47>
  1015ff:	83 ec 04             	sub    $0x4,%esp
  101602:	6a 0f                	push   $0xf
  101604:	6a 00                	push   $0x0
  101606:	6a 00                	push   $0x0
  101608:	e8 5f 01 00 00       	call   10176c <vga_putc>
  10160d:	83 c4 10             	add    $0x10,%esp
  101610:	83 45 f0 01          	addl   $0x1,-0x10(%ebp)
  101614:	83 7d f0 4f          	cmpl   $0x4f,-0x10(%ebp)
  101618:	7e e5                	jle    1015ff <clear_screen+0x32>
  10161a:	83 45 f4 01          	addl   $0x1,-0xc(%ebp)
  10161e:	83 7d f4 18          	cmpl   $0x18,-0xc(%ebp)
  101622:	7e d2                	jle    1015f6 <clear_screen+0x29>
  101624:	c6 83 40 11 10 00 00 	movb   $0x0,0x101140(%ebx)
  10162b:	c6 83 41 11 10 00 00 	movb   $0x0,0x101141(%ebx)
  101632:	e8 ba fe ff ff       	call   1014f1 <move_cursor>
  101637:	90                   	nop
  101638:	8b 5d fc             	mov    -0x4(%ebp),%ebx
  10163b:	c9                   	leave  
  10163c:	c3                   	ret    

0010163d <screen_uproll_once>:
  10163d:	55                   	push   %ebp
  10163e:	89 e5                	mov    %esp,%ebp
  101640:	53                   	push   %ebx
  101641:	83 ec 24             	sub    $0x24,%esp
  101644:	e8 bb 09 00 00       	call   102004 <__x86.get_pc_thunk.ax>
  101649:	05 b7 19 00 00       	add    $0x19b7,%eax
  10164e:	c7 45 f4 18 00 00 00 	movl   $0x18,-0xc(%ebp)
  101655:	e9 9d 00 00 00       	jmp    1016f7 <screen_uproll_once+0xba>
  10165a:	c7 45 f0 00 00 00 00 	movl   $0x0,-0x10(%ebp)
  101661:	e9 83 00 00 00       	jmp    1016e9 <screen_uproll_once+0xac>
  101666:	8b 55 f4             	mov    -0xc(%ebp),%edx
  101669:	89 d1                	mov    %edx,%ecx
  10166b:	89 ca                	mov    %ecx,%edx
  10166d:	c1 e2 02             	shl    $0x2,%edx
  101670:	01 ca                	add    %ecx,%edx
  101672:	c1 e2 04             	shl    $0x4,%edx
  101675:	89 d1                	mov    %edx,%ecx
  101677:	8b 55 f0             	mov    -0x10(%ebp),%edx
  10167a:	01 ca                	add    %ecx,%edx
  10167c:	66 89 55 e8          	mov    %dx,-0x18(%ebp)
  101680:	8b 55 f4             	mov    -0xc(%ebp),%edx
  101683:	83 ea 01             	sub    $0x1,%edx
  101686:	89 d1                	mov    %edx,%ecx
  101688:	89 ca                	mov    %ecx,%edx
  10168a:	c1 e2 02             	shl    $0x2,%edx
  10168d:	01 ca                	add    %ecx,%edx
  10168f:	c1 e2 04             	shl    $0x4,%edx
  101692:	89 d1                	mov    %edx,%ecx
  101694:	8b 55 f0             	mov    -0x10(%ebp),%edx
  101697:	01 ca                	add    %ecx,%edx
  101699:	66 89 55 e6          	mov    %dx,-0x1a(%ebp)
  10169d:	8b 90 1c f0 ff ff    	mov    -0xfe4(%eax),%edx
  1016a3:	0f b7 4d e8          	movzwl -0x18(%ebp),%ecx
  1016a7:	01 c9                	add    %ecx,%ecx
  1016a9:	01 ca                	add    %ecx,%edx
  1016ab:	8b 88 1c f0 ff ff    	mov    -0xfe4(%eax),%ecx
  1016b1:	0f b7 5d e6          	movzwl -0x1a(%ebp),%ebx
  1016b5:	01 db                	add    %ebx,%ebx
  1016b7:	01 d9                	add    %ebx,%ecx
  1016b9:	0f b6 12             	movzbl (%edx),%edx
  1016bc:	88 11                	mov    %dl,(%ecx)
  1016be:	8b 90 1c f0 ff ff    	mov    -0xfe4(%eax),%edx
  1016c4:	0f b7 4d e8          	movzwl -0x18(%ebp),%ecx
  1016c8:	01 c9                	add    %ecx,%ecx
  1016ca:	83 c1 01             	add    $0x1,%ecx
  1016cd:	01 ca                	add    %ecx,%edx
  1016cf:	8b 88 1c f0 ff ff    	mov    -0xfe4(%eax),%ecx
  1016d5:	0f b7 5d e6          	movzwl -0x1a(%ebp),%ebx
  1016d9:	01 db                	add    %ebx,%ebx
  1016db:	83 c3 01             	add    $0x1,%ebx
  1016de:	01 d9                	add    %ebx,%ecx
  1016e0:	0f b6 12             	movzbl (%edx),%edx
  1016e3:	88 11                	mov    %dl,(%ecx)
  1016e5:	83 45 f0 01          	addl   $0x1,-0x10(%ebp)
  1016e9:	83 7d f0 4f          	cmpl   $0x4f,-0x10(%ebp)
  1016ed:	0f 8e 73 ff ff ff    	jle    101666 <screen_uproll_once+0x29>
  1016f3:	83 6d f4 01          	subl   $0x1,-0xc(%ebp)
  1016f7:	83 7d f4 00          	cmpl   $0x0,-0xc(%ebp)
  1016fb:	0f 8f 59 ff ff ff    	jg     10165a <screen_uproll_once+0x1d>
  101701:	c7 45 ec 00 00 00 00 	movl   $0x0,-0x14(%ebp)
  101708:	eb 35                	jmp    10173f <screen_uproll_once+0x102>
  10170a:	8b 55 ec             	mov    -0x14(%ebp),%edx
  10170d:	66 81 c2 80 07       	add    $0x780,%dx
  101712:	66 89 55 ea          	mov    %dx,-0x16(%ebp)
  101716:	8b 90 1c f0 ff ff    	mov    -0xfe4(%eax),%edx
  10171c:	0f b7 4d ea          	movzwl -0x16(%ebp),%ecx
  101720:	01 c9                	add    %ecx,%ecx
  101722:	01 ca                	add    %ecx,%edx
  101724:	c6 02 00             	movb   $0x0,(%edx)
  101727:	8b 90 1c f0 ff ff    	mov    -0xfe4(%eax),%edx
  10172d:	0f b7 4d ea          	movzwl -0x16(%ebp),%ecx
  101731:	01 c9                	add    %ecx,%ecx
  101733:	83 c1 01             	add    $0x1,%ecx
  101736:	01 ca                	add    %ecx,%edx
  101738:	c6 02 0f             	movb   $0xf,(%edx)
  10173b:	83 45 ec 01          	addl   $0x1,-0x14(%ebp)
  10173f:	83 7d ec 4f          	cmpl   $0x4f,-0x14(%ebp)
  101743:	7e c5                	jle    10170a <screen_uproll_once+0xcd>
  101745:	0f b6 90 41 11 10 00 	movzbl 0x101141(%eax),%edx
  10174c:	84 d2                	test   %dl,%dl
  10174e:	74 15                	je     101765 <screen_uproll_once+0x128>
  101750:	0f b6 90 41 11 10 00 	movzbl 0x101141(%eax),%edx
  101757:	83 ea 01             	sub    $0x1,%edx
  10175a:	88 90 41 11 10 00    	mov    %dl,0x101141(%eax)
  101760:	e8 8c fd ff ff       	call   1014f1 <move_cursor>
  101765:	90                   	nop
  101766:	83 c4 24             	add    $0x24,%esp
  101769:	5b                   	pop    %ebx
  10176a:	5d                   	pop    %ebp
  10176b:	c3                   	ret    

0010176c <vga_putc>:
  10176c:	55                   	push   %ebp
  10176d:	89 e5                	mov    %esp,%ebp
  10176f:	53                   	push   %ebx
  101770:	83 ec 24             	sub    $0x24,%esp
  101773:	e8 88 08 00 00       	call   102000 <__x86.get_pc_thunk.bx>
  101778:	81 c3 88 18 00 00    	add    $0x1888,%ebx
  10177e:	8b 45 08             	mov    0x8(%ebp),%eax
  101781:	88 45 e4             	mov    %al,-0x1c(%ebp)
  101784:	0f b6 83 41 11 10 00 	movzbl 0x101141(%ebx),%eax
  10178b:	0f b6 d0             	movzbl %al,%edx
  10178e:	89 d0                	mov    %edx,%eax
  101790:	c1 e0 02             	shl    $0x2,%eax
  101793:	01 d0                	add    %edx,%eax
  101795:	c1 e0 04             	shl    $0x4,%eax
  101798:	89 c2                	mov    %eax,%edx
  10179a:	0f b6 83 40 11 10 00 	movzbl 0x101140(%ebx),%eax
  1017a1:	0f b6 c0             	movzbl %al,%eax
  1017a4:	01 d0                	add    %edx,%eax
  1017a6:	66 89 45 f6          	mov    %ax,-0xa(%ebp)
  1017aa:	8b 83 1c f0 ff ff    	mov    -0xfe4(%ebx),%eax
  1017b0:	0f b7 55 f6          	movzwl -0xa(%ebp),%edx
  1017b4:	01 d2                	add    %edx,%edx
  1017b6:	01 c2                	add    %eax,%edx
  1017b8:	0f b6 45 e4          	movzbl -0x1c(%ebp),%eax
  1017bc:	88 02                	mov    %al,(%edx)
  1017be:	8b 45 0c             	mov    0xc(%ebp),%eax
  1017c1:	c1 e0 04             	shl    $0x4,%eax
  1017c4:	89 c2                	mov    %eax,%edx
  1017c6:	8b 45 10             	mov    0x10(%ebp),%eax
  1017c9:	83 e0 0f             	and    $0xf,%eax
  1017cc:	89 d1                	mov    %edx,%ecx
  1017ce:	09 c1                	or     %eax,%ecx
  1017d0:	8b 83 1c f0 ff ff    	mov    -0xfe4(%ebx),%eax
  1017d6:	0f b7 55 f6          	movzwl -0xa(%ebp),%edx
  1017da:	01 d2                	add    %edx,%edx
  1017dc:	83 c2 01             	add    $0x1,%edx
  1017df:	01 d0                	add    %edx,%eax
  1017e1:	89 ca                	mov    %ecx,%edx
  1017e3:	88 10                	mov    %dl,(%eax)
  1017e5:	0f b6 83 40 11 10 00 	movzbl 0x101140(%ebx),%eax
  1017ec:	3c 4f                	cmp    $0x4f,%al
  1017ee:	75 39                	jne    101829 <vga_putc+0xbd>
  1017f0:	0f b6 83 41 11 10 00 	movzbl 0x101141(%ebx),%eax
  1017f7:	3c 18                	cmp    $0x18,%al
  1017f9:	75 15                	jne    101810 <vga_putc+0xa4>
  1017fb:	e8 3d fe ff ff       	call   10163d <screen_uproll_once>
  101800:	c6 83 40 11 10 00 00 	movb   $0x0,0x101140(%ebx)
  101807:	c6 83 41 11 10 00 18 	movb   $0x18,0x101141(%ebx)
  10180e:	eb 29                	jmp    101839 <vga_putc+0xcd>
  101810:	c6 83 40 11 10 00 00 	movb   $0x0,0x101140(%ebx)
  101817:	0f b6 83 41 11 10 00 	movzbl 0x101141(%ebx),%eax
  10181e:	83 c0 01             	add    $0x1,%eax
  101821:	88 83 41 11 10 00    	mov    %al,0x101141(%ebx)
  101827:	eb 10                	jmp    101839 <vga_putc+0xcd>
  101829:	0f b6 83 40 11 10 00 	movzbl 0x101140(%ebx),%eax
  101830:	83 c0 01             	add    $0x1,%eax
  101833:	88 83 40 11 10 00    	mov    %al,0x101140(%ebx)
  101839:	e8 b3 fc ff ff       	call   1014f1 <move_cursor>
  10183e:	90                   	nop
  10183f:	83 c4 24             	add    $0x24,%esp
  101842:	5b                   	pop    %ebx
  101843:	5d                   	pop    %ebp
  101844:	c3                   	ret    

00101845 <kputc_color>:
  101845:	55                   	push   %ebp
  101846:	89 e5                	mov    %esp,%ebp
  101848:	53                   	push   %ebx
  101849:	83 ec 24             	sub    $0x24,%esp
  10184c:	e8 af 07 00 00       	call   102000 <__x86.get_pc_thunk.bx>
  101851:	81 c3 af 17 00 00    	add    $0x17af,%ebx
  101857:	8b 45 08             	mov    0x8(%ebp),%eax
  10185a:	88 45 e4             	mov    %al,-0x1c(%ebp)
  10185d:	0f be 45 e4          	movsbl -0x1c(%ebp),%eax
  101861:	83 f8 09             	cmp    $0x9,%eax
  101864:	74 07                	je     10186d <kputc_color+0x28>
  101866:	83 f8 0a             	cmp    $0xa,%eax
  101869:	74 33                	je     10189e <kputc_color+0x59>
  10186b:	eb 79                	jmp    1018e6 <kputc_color+0xa1>
  10186d:	c7 45 f4 00 00 00 00 	movl   $0x0,-0xc(%ebp)
  101874:	eb 17                	jmp    10188d <kputc_color+0x48>
  101876:	83 ec 04             	sub    $0x4,%esp
  101879:	ff 75 10             	pushl  0x10(%ebp)
  10187c:	ff 75 0c             	pushl  0xc(%ebp)
  10187f:	6a 00                	push   $0x0
  101881:	e8 e6 fe ff ff       	call   10176c <vga_putc>
  101886:	83 c4 10             	add    $0x10,%esp
  101889:	83 45 f4 01          	addl   $0x1,-0xc(%ebp)
  10188d:	0f b6 83 18 f0 ff ff 	movzbl -0xfe8(%ebx),%eax
  101894:	0f b6 c0             	movzbl %al,%eax
  101897:	39 45 f4             	cmp    %eax,-0xc(%ebp)
  10189a:	7c da                	jl     101876 <kputc_color+0x31>
  10189c:	eb 5e                	jmp    1018fc <kputc_color+0xb7>
  10189e:	0f b6 83 40 11 10 00 	movzbl 0x101140(%ebx),%eax
  1018a5:	ba 50 00 00 00       	mov    $0x50,%edx
  1018aa:	29 c2                	sub    %eax,%edx
  1018ac:	89 d0                	mov    %edx,%eax
  1018ae:	88 45 f3             	mov    %al,-0xd(%ebp)
  1018b1:	80 7d f3 00          	cmpb   $0x0,-0xd(%ebp)
  1018b5:	75 04                	jne    1018bb <kputc_color+0x76>
  1018b7:	c6 45 f3 50          	movb   $0x50,-0xd(%ebp)
  1018bb:	c7 45 ec 00 00 00 00 	movl   $0x0,-0x14(%ebp)
  1018c2:	eb 17                	jmp    1018db <kputc_color+0x96>
  1018c4:	83 ec 04             	sub    $0x4,%esp
  1018c7:	ff 75 10             	pushl  0x10(%ebp)
  1018ca:	ff 75 0c             	pushl  0xc(%ebp)
  1018cd:	6a 00                	push   $0x0
  1018cf:	e8 98 fe ff ff       	call   10176c <vga_putc>
  1018d4:	83 c4 10             	add    $0x10,%esp
  1018d7:	83 45 ec 01          	addl   $0x1,-0x14(%ebp)
  1018db:	0f b6 45 f3          	movzbl -0xd(%ebp),%eax
  1018df:	39 45 ec             	cmp    %eax,-0x14(%ebp)
  1018e2:	7c e0                	jl     1018c4 <kputc_color+0x7f>
  1018e4:	eb 16                	jmp    1018fc <kputc_color+0xb7>
  1018e6:	0f be 45 e4          	movsbl -0x1c(%ebp),%eax
  1018ea:	83 ec 04             	sub    $0x4,%esp
  1018ed:	ff 75 10             	pushl  0x10(%ebp)
  1018f0:	ff 75 0c             	pushl  0xc(%ebp)
  1018f3:	50                   	push   %eax
  1018f4:	e8 73 fe ff ff       	call   10176c <vga_putc>
  1018f9:	83 c4 10             	add    $0x10,%esp
  1018fc:	90                   	nop
  1018fd:	8b 5d fc             	mov    -0x4(%ebp),%ebx
  101900:	c9                   	leave  
  101901:	c3                   	ret    

00101902 <kputc>:
  101902:	55                   	push   %ebp
  101903:	89 e5                	mov    %esp,%ebp
  101905:	83 ec 18             	sub    $0x18,%esp
  101908:	e8 f7 06 00 00       	call   102004 <__x86.get_pc_thunk.ax>
  10190d:	05 f3 16 00 00       	add    $0x16f3,%eax
  101912:	8b 45 08             	mov    0x8(%ebp),%eax
  101915:	88 45 f4             	mov    %al,-0xc(%ebp)
  101918:	0f be 45 f4          	movsbl -0xc(%ebp),%eax
  10191c:	83 ec 04             	sub    $0x4,%esp
  10191f:	6a 0f                	push   $0xf
  101921:	6a 00                	push   $0x0
  101923:	50                   	push   %eax
  101924:	e8 1c ff ff ff       	call   101845 <kputc_color>
  101929:	83 c4 10             	add    $0x10,%esp
  10192c:	90                   	nop
  10192d:	c9                   	leave  
  10192e:	c3                   	ret    

0010192f <kputs_color>:
  10192f:	55                   	push   %ebp
  101930:	89 e5                	mov    %esp,%ebp
  101932:	83 ec 18             	sub    $0x18,%esp
  101935:	e8 ca 06 00 00       	call   102004 <__x86.get_pc_thunk.ax>
  10193a:	05 c6 16 00 00       	add    $0x16c6,%eax
  10193f:	8b 45 08             	mov    0x8(%ebp),%eax
  101942:	89 45 f4             	mov    %eax,-0xc(%ebp)
  101945:	eb 21                	jmp    101968 <kputs_color+0x39>
  101947:	8b 45 f4             	mov    -0xc(%ebp),%eax
  10194a:	8d 50 01             	lea    0x1(%eax),%edx
  10194d:	89 55 f4             	mov    %edx,-0xc(%ebp)
  101950:	0f b6 00             	movzbl (%eax),%eax
  101953:	0f be c0             	movsbl %al,%eax
  101956:	83 ec 04             	sub    $0x4,%esp
  101959:	ff 75 10             	pushl  0x10(%ebp)
  10195c:	ff 75 0c             	pushl  0xc(%ebp)
  10195f:	50                   	push   %eax
  101960:	e8 e0 fe ff ff       	call   101845 <kputc_color>
  101965:	83 c4 10             	add    $0x10,%esp
  101968:	8b 45 f4             	mov    -0xc(%ebp),%eax
  10196b:	0f b6 00             	movzbl (%eax),%eax
  10196e:	84 c0                	test   %al,%al
  101970:	75 d5                	jne    101947 <kputs_color+0x18>
  101972:	90                   	nop
  101973:	c9                   	leave  
  101974:	c3                   	ret    

00101975 <kputs>:
  101975:	55                   	push   %ebp
  101976:	89 e5                	mov    %esp,%ebp
  101978:	83 ec 08             	sub    $0x8,%esp
  10197b:	e8 84 06 00 00       	call   102004 <__x86.get_pc_thunk.ax>
  101980:	05 80 16 00 00       	add    $0x1680,%eax
  101985:	83 ec 04             	sub    $0x4,%esp
  101988:	6a 0f                	push   $0xf
  10198a:	6a 00                	push   $0x0
  10198c:	ff 75 08             	pushl  0x8(%ebp)
  10198f:	e8 9b ff ff ff       	call   10192f <kputs_color>
  101994:	83 c4 10             	add    $0x10,%esp
  101997:	90                   	nop
  101998:	c9                   	leave  
  101999:	c3                   	ret    

0010199a <vga_init>:
  10199a:	55                   	push   %ebp
  10199b:	89 e5                	mov    %esp,%ebp
  10199d:	83 ec 18             	sub    $0x18,%esp
  1019a0:	e8 5f 06 00 00       	call   102004 <__x86.get_pc_thunk.ax>
  1019a5:	05 5b 16 00 00       	add    $0x165b,%eax
  1019aa:	e8 1e fc ff ff       	call   1015cd <clear_screen>
  1019af:	c7 45 f4 00 a0 00 00 	movl   $0xa000,-0xc(%ebp)
  1019b6:	eb 0c                	jmp    1019c4 <vga_init+0x2a>
  1019b8:	8b 45 f4             	mov    -0xc(%ebp),%eax
  1019bb:	66 c7 00 ff 00       	movw   $0xff,(%eax)
  1019c0:	83 45 f4 02          	addl   $0x2,-0xc(%ebp)
  1019c4:	81 7d f4 ff af 00 00 	cmpl   $0xafff,-0xc(%ebp)
  1019cb:	76 eb                	jbe    1019b8 <vga_init+0x1e>
  1019cd:	90                   	nop
  1019ce:	c9                   	leave  
  1019cf:	c3                   	ret    
  1019d0:	66 90                	xchg   %ax,%ax
  1019d2:	66 90                	xchg   %ax,%ax
  1019d4:	66 90                	xchg   %ax,%ax
  1019d6:	66 90                	xchg   %ax,%ax
  1019d8:	66 90                	xchg   %ax,%ax
  1019da:	66 90                	xchg   %ax,%ax
  1019dc:	66 90                	xchg   %ax,%ax
  1019de:	66 90                	xchg   %ax,%ax
  1019e0:	66 90                	xchg   %ax,%ax
  1019e2:	66 90                	xchg   %ax,%ax
  1019e4:	66 90                	xchg   %ax,%ax
  1019e6:	66 90                	xchg   %ax,%ax
  1019e8:	66 90                	xchg   %ax,%ax
  1019ea:	66 90                	xchg   %ax,%ax
  1019ec:	66 90                	xchg   %ax,%ax
  1019ee:	66 90                	xchg   %ax,%ax
  1019f0:	66 90                	xchg   %ax,%ax
  1019f2:	66 90                	xchg   %ax,%ax
  1019f4:	66 90                	xchg   %ax,%ax
  1019f6:	66 90                	xchg   %ax,%ax
  1019f8:	66 90                	xchg   %ax,%ax
  1019fa:	66 90                	xchg   %ax,%ax
  1019fc:	66 90                	xchg   %ax,%ax
  1019fe:	66 90                	xchg   %ax,%ax
  101a00:	66 90                	xchg   %ax,%ax
  101a02:	66 90                	xchg   %ax,%ax
  101a04:	66 90                	xchg   %ax,%ax
  101a06:	66 90                	xchg   %ax,%ax
  101a08:	66 90                	xchg   %ax,%ax
  101a0a:	66 90                	xchg   %ax,%ax
  101a0c:	66 90                	xchg   %ax,%ax
  101a0e:	66 90                	xchg   %ax,%ax
  101a10:	66 90                	xchg   %ax,%ax
  101a12:	66 90                	xchg   %ax,%ax
  101a14:	66 90                	xchg   %ax,%ax
  101a16:	66 90                	xchg   %ax,%ax
  101a18:	66 90                	xchg   %ax,%ax
  101a1a:	66 90                	xchg   %ax,%ax
  101a1c:	66 90                	xchg   %ax,%ax
  101a1e:	66 90                	xchg   %ax,%ax
  101a20:	66 90                	xchg   %ax,%ax
  101a22:	66 90                	xchg   %ax,%ax
  101a24:	66 90                	xchg   %ax,%ax
  101a26:	66 90                	xchg   %ax,%ax
  101a28:	66 90                	xchg   %ax,%ax
  101a2a:	66 90                	xchg   %ax,%ax
  101a2c:	66 90                	xchg   %ax,%ax
  101a2e:	66 90                	xchg   %ax,%ax
  101a30:	66 90                	xchg   %ax,%ax
  101a32:	66 90                	xchg   %ax,%ax
  101a34:	66 90                	xchg   %ax,%ax
  101a36:	66 90                	xchg   %ax,%ax
  101a38:	66 90                	xchg   %ax,%ax
  101a3a:	66 90                	xchg   %ax,%ax
  101a3c:	66 90                	xchg   %ax,%ax
  101a3e:	66 90                	xchg   %ax,%ax
  101a40:	66 90                	xchg   %ax,%ax
  101a42:	66 90                	xchg   %ax,%ax
  101a44:	66 90                	xchg   %ax,%ax
  101a46:	66 90                	xchg   %ax,%ax
  101a48:	66 90                	xchg   %ax,%ax
  101a4a:	66 90                	xchg   %ax,%ax
  101a4c:	66 90                	xchg   %ax,%ax
  101a4e:	66 90                	xchg   %ax,%ax
  101a50:	66 90                	xchg   %ax,%ax
  101a52:	66 90                	xchg   %ax,%ax
  101a54:	66 90                	xchg   %ax,%ax
  101a56:	66 90                	xchg   %ax,%ax
  101a58:	66 90                	xchg   %ax,%ax
  101a5a:	66 90                	xchg   %ax,%ax
  101a5c:	66 90                	xchg   %ax,%ax
  101a5e:	66 90                	xchg   %ax,%ax
  101a60:	66 90                	xchg   %ax,%ax
  101a62:	66 90                	xchg   %ax,%ax
  101a64:	66 90                	xchg   %ax,%ax
  101a66:	66 90                	xchg   %ax,%ax
  101a68:	66 90                	xchg   %ax,%ax
  101a6a:	66 90                	xchg   %ax,%ax
  101a6c:	66 90                	xchg   %ax,%ax
  101a6e:	66 90                	xchg   %ax,%ax
  101a70:	66 90                	xchg   %ax,%ax
  101a72:	66 90                	xchg   %ax,%ax
  101a74:	66 90                	xchg   %ax,%ax
  101a76:	66 90                	xchg   %ax,%ax
  101a78:	66 90                	xchg   %ax,%ax
  101a7a:	66 90                	xchg   %ax,%ax
  101a7c:	66 90                	xchg   %ax,%ax
  101a7e:	66 90                	xchg   %ax,%ax
  101a80:	66 90                	xchg   %ax,%ax
  101a82:	66 90                	xchg   %ax,%ax
  101a84:	66 90                	xchg   %ax,%ax
  101a86:	66 90                	xchg   %ax,%ax
  101a88:	66 90                	xchg   %ax,%ax
  101a8a:	66 90                	xchg   %ax,%ax
  101a8c:	66 90                	xchg   %ax,%ax
  101a8e:	66 90                	xchg   %ax,%ax
  101a90:	66 90                	xchg   %ax,%ax
  101a92:	66 90                	xchg   %ax,%ax
  101a94:	66 90                	xchg   %ax,%ax
  101a96:	66 90                	xchg   %ax,%ax
  101a98:	66 90                	xchg   %ax,%ax
  101a9a:	66 90                	xchg   %ax,%ax
  101a9c:	66 90                	xchg   %ax,%ax
  101a9e:	66 90                	xchg   %ax,%ax
  101aa0:	66 90                	xchg   %ax,%ax
  101aa2:	66 90                	xchg   %ax,%ax
  101aa4:	66 90                	xchg   %ax,%ax
  101aa6:	66 90                	xchg   %ax,%ax
  101aa8:	66 90                	xchg   %ax,%ax
  101aaa:	66 90                	xchg   %ax,%ax
  101aac:	66 90                	xchg   %ax,%ax
  101aae:	66 90                	xchg   %ax,%ax
  101ab0:	66 90                	xchg   %ax,%ax
  101ab2:	66 90                	xchg   %ax,%ax
  101ab4:	66 90                	xchg   %ax,%ax
  101ab6:	66 90                	xchg   %ax,%ax
  101ab8:	66 90                	xchg   %ax,%ax
  101aba:	66 90                	xchg   %ax,%ax
  101abc:	66 90                	xchg   %ax,%ax
  101abe:	66 90                	xchg   %ax,%ax
  101ac0:	66 90                	xchg   %ax,%ax
  101ac2:	66 90                	xchg   %ax,%ax
  101ac4:	66 90                	xchg   %ax,%ax
  101ac6:	66 90                	xchg   %ax,%ax
  101ac8:	66 90                	xchg   %ax,%ax
  101aca:	66 90                	xchg   %ax,%ax
  101acc:	66 90                	xchg   %ax,%ax
  101ace:	66 90                	xchg   %ax,%ax
  101ad0:	66 90                	xchg   %ax,%ax
  101ad2:	66 90                	xchg   %ax,%ax
  101ad4:	66 90                	xchg   %ax,%ax
  101ad6:	66 90                	xchg   %ax,%ax
  101ad8:	66 90                	xchg   %ax,%ax
  101ada:	66 90                	xchg   %ax,%ax
  101adc:	66 90                	xchg   %ax,%ax
  101ade:	66 90                	xchg   %ax,%ax
  101ae0:	66 90                	xchg   %ax,%ax
  101ae2:	66 90                	xchg   %ax,%ax
  101ae4:	66 90                	xchg   %ax,%ax
  101ae6:	66 90                	xchg   %ax,%ax
  101ae8:	66 90                	xchg   %ax,%ax
  101aea:	66 90                	xchg   %ax,%ax
  101aec:	66 90                	xchg   %ax,%ax
  101aee:	66 90                	xchg   %ax,%ax
  101af0:	66 90                	xchg   %ax,%ax
  101af2:	66 90                	xchg   %ax,%ax
  101af4:	66 90                	xchg   %ax,%ax
  101af6:	66 90                	xchg   %ax,%ax
  101af8:	66 90                	xchg   %ax,%ax
  101afa:	66 90                	xchg   %ax,%ax
  101afc:	66 90                	xchg   %ax,%ax
  101afe:	66 90                	xchg   %ax,%ax
  101b00:	66 90                	xchg   %ax,%ax
  101b02:	66 90                	xchg   %ax,%ax
  101b04:	66 90                	xchg   %ax,%ax
  101b06:	66 90                	xchg   %ax,%ax
  101b08:	66 90                	xchg   %ax,%ax
  101b0a:	66 90                	xchg   %ax,%ax
  101b0c:	66 90                	xchg   %ax,%ax
  101b0e:	66 90                	xchg   %ax,%ax
  101b10:	66 90                	xchg   %ax,%ax
  101b12:	66 90                	xchg   %ax,%ax
  101b14:	66 90                	xchg   %ax,%ax
  101b16:	66 90                	xchg   %ax,%ax
  101b18:	66 90                	xchg   %ax,%ax
  101b1a:	66 90                	xchg   %ax,%ax
  101b1c:	66 90                	xchg   %ax,%ax
  101b1e:	66 90                	xchg   %ax,%ax
  101b20:	66 90                	xchg   %ax,%ax
  101b22:	66 90                	xchg   %ax,%ax
  101b24:	66 90                	xchg   %ax,%ax
  101b26:	66 90                	xchg   %ax,%ax
  101b28:	66 90                	xchg   %ax,%ax
  101b2a:	66 90                	xchg   %ax,%ax
  101b2c:	66 90                	xchg   %ax,%ax
  101b2e:	66 90                	xchg   %ax,%ax
  101b30:	66 90                	xchg   %ax,%ax
  101b32:	66 90                	xchg   %ax,%ax
  101b34:	66 90                	xchg   %ax,%ax
  101b36:	66 90                	xchg   %ax,%ax
  101b38:	66 90                	xchg   %ax,%ax
  101b3a:	66 90                	xchg   %ax,%ax
  101b3c:	66 90                	xchg   %ax,%ax
  101b3e:	66 90                	xchg   %ax,%ax
  101b40:	66 90                	xchg   %ax,%ax
  101b42:	66 90                	xchg   %ax,%ax
  101b44:	66 90                	xchg   %ax,%ax
  101b46:	66 90                	xchg   %ax,%ax
  101b48:	66 90                	xchg   %ax,%ax
  101b4a:	66 90                	xchg   %ax,%ax
  101b4c:	66 90                	xchg   %ax,%ax
  101b4e:	66 90                	xchg   %ax,%ax
  101b50:	66 90                	xchg   %ax,%ax
  101b52:	66 90                	xchg   %ax,%ax
  101b54:	66 90                	xchg   %ax,%ax
  101b56:	66 90                	xchg   %ax,%ax
  101b58:	66 90                	xchg   %ax,%ax
  101b5a:	66 90                	xchg   %ax,%ax
  101b5c:	66 90                	xchg   %ax,%ax
  101b5e:	66 90                	xchg   %ax,%ax
  101b60:	66 90                	xchg   %ax,%ax
  101b62:	66 90                	xchg   %ax,%ax
  101b64:	66 90                	xchg   %ax,%ax
  101b66:	66 90                	xchg   %ax,%ax
  101b68:	66 90                	xchg   %ax,%ax
  101b6a:	66 90                	xchg   %ax,%ax
  101b6c:	66 90                	xchg   %ax,%ax
  101b6e:	66 90                	xchg   %ax,%ax
  101b70:	66 90                	xchg   %ax,%ax
  101b72:	66 90                	xchg   %ax,%ax
  101b74:	66 90                	xchg   %ax,%ax
  101b76:	66 90                	xchg   %ax,%ax
  101b78:	66 90                	xchg   %ax,%ax
  101b7a:	66 90                	xchg   %ax,%ax
  101b7c:	66 90                	xchg   %ax,%ax
  101b7e:	66 90                	xchg   %ax,%ax
  101b80:	66 90                	xchg   %ax,%ax
  101b82:	66 90                	xchg   %ax,%ax
  101b84:	66 90                	xchg   %ax,%ax
  101b86:	66 90                	xchg   %ax,%ax
  101b88:	66 90                	xchg   %ax,%ax
  101b8a:	66 90                	xchg   %ax,%ax
  101b8c:	66 90                	xchg   %ax,%ax
  101b8e:	66 90                	xchg   %ax,%ax
  101b90:	66 90                	xchg   %ax,%ax
  101b92:	66 90                	xchg   %ax,%ax
  101b94:	66 90                	xchg   %ax,%ax
  101b96:	66 90                	xchg   %ax,%ax
  101b98:	66 90                	xchg   %ax,%ax
  101b9a:	66 90                	xchg   %ax,%ax
  101b9c:	66 90                	xchg   %ax,%ax
  101b9e:	66 90                	xchg   %ax,%ax
  101ba0:	66 90                	xchg   %ax,%ax
  101ba2:	66 90                	xchg   %ax,%ax
  101ba4:	66 90                	xchg   %ax,%ax
  101ba6:	66 90                	xchg   %ax,%ax
  101ba8:	66 90                	xchg   %ax,%ax
  101baa:	66 90                	xchg   %ax,%ax
  101bac:	66 90                	xchg   %ax,%ax
  101bae:	66 90                	xchg   %ax,%ax
  101bb0:	66 90                	xchg   %ax,%ax
  101bb2:	66 90                	xchg   %ax,%ax
  101bb4:	66 90                	xchg   %ax,%ax
  101bb6:	66 90                	xchg   %ax,%ax
  101bb8:	66 90                	xchg   %ax,%ax
  101bba:	66 90                	xchg   %ax,%ax
  101bbc:	66 90                	xchg   %ax,%ax
  101bbe:	66 90                	xchg   %ax,%ax
  101bc0:	66 90                	xchg   %ax,%ax
  101bc2:	66 90                	xchg   %ax,%ax
  101bc4:	66 90                	xchg   %ax,%ax
  101bc6:	66 90                	xchg   %ax,%ax
  101bc8:	66 90                	xchg   %ax,%ax
  101bca:	66 90                	xchg   %ax,%ax
  101bcc:	66 90                	xchg   %ax,%ax
  101bce:	66 90                	xchg   %ax,%ax
  101bd0:	66 90                	xchg   %ax,%ax
  101bd2:	66 90                	xchg   %ax,%ax
  101bd4:	66 90                	xchg   %ax,%ax
  101bd6:	66 90                	xchg   %ax,%ax
  101bd8:	66 90                	xchg   %ax,%ax
  101bda:	66 90                	xchg   %ax,%ax
  101bdc:	66 90                	xchg   %ax,%ax
  101bde:	66 90                	xchg   %ax,%ax
  101be0:	66 90                	xchg   %ax,%ax
  101be2:	66 90                	xchg   %ax,%ax
  101be4:	66 90                	xchg   %ax,%ax
  101be6:	66 90                	xchg   %ax,%ax
  101be8:	66 90                	xchg   %ax,%ax
  101bea:	66 90                	xchg   %ax,%ax
  101bec:	66 90                	xchg   %ax,%ax
  101bee:	66 90                	xchg   %ax,%ax
  101bf0:	66 90                	xchg   %ax,%ax
  101bf2:	66 90                	xchg   %ax,%ax
  101bf4:	66 90                	xchg   %ax,%ax
  101bf6:	66 90                	xchg   %ax,%ax
  101bf8:	66 90                	xchg   %ax,%ax
  101bfa:	66 90                	xchg   %ax,%ax
  101bfc:	66 90                	xchg   %ax,%ax
  101bfe:	66 90                	xchg   %ax,%ax
  101c00:	66 90                	xchg   %ax,%ax
  101c02:	66 90                	xchg   %ax,%ax
  101c04:	66 90                	xchg   %ax,%ax
  101c06:	66 90                	xchg   %ax,%ax
  101c08:	66 90                	xchg   %ax,%ax
  101c0a:	66 90                	xchg   %ax,%ax
  101c0c:	66 90                	xchg   %ax,%ax
  101c0e:	66 90                	xchg   %ax,%ax
  101c10:	66 90                	xchg   %ax,%ax
  101c12:	66 90                	xchg   %ax,%ax
  101c14:	66 90                	xchg   %ax,%ax
  101c16:	66 90                	xchg   %ax,%ax
  101c18:	66 90                	xchg   %ax,%ax
  101c1a:	66 90                	xchg   %ax,%ax
  101c1c:	66 90                	xchg   %ax,%ax
  101c1e:	66 90                	xchg   %ax,%ax
  101c20:	66 90                	xchg   %ax,%ax
  101c22:	66 90                	xchg   %ax,%ax
  101c24:	66 90                	xchg   %ax,%ax
  101c26:	66 90                	xchg   %ax,%ax
  101c28:	66 90                	xchg   %ax,%ax
  101c2a:	66 90                	xchg   %ax,%ax
  101c2c:	66 90                	xchg   %ax,%ax
  101c2e:	66 90                	xchg   %ax,%ax
  101c30:	66 90                	xchg   %ax,%ax
  101c32:	66 90                	xchg   %ax,%ax
  101c34:	66 90                	xchg   %ax,%ax
  101c36:	66 90                	xchg   %ax,%ax
  101c38:	66 90                	xchg   %ax,%ax
  101c3a:	66 90                	xchg   %ax,%ax
  101c3c:	66 90                	xchg   %ax,%ax
  101c3e:	66 90                	xchg   %ax,%ax
  101c40:	66 90                	xchg   %ax,%ax
  101c42:	66 90                	xchg   %ax,%ax
  101c44:	66 90                	xchg   %ax,%ax
  101c46:	66 90                	xchg   %ax,%ax
  101c48:	66 90                	xchg   %ax,%ax
  101c4a:	66 90                	xchg   %ax,%ax
  101c4c:	66 90                	xchg   %ax,%ax
  101c4e:	66 90                	xchg   %ax,%ax
  101c50:	66 90                	xchg   %ax,%ax
  101c52:	66 90                	xchg   %ax,%ax
  101c54:	66 90                	xchg   %ax,%ax
  101c56:	66 90                	xchg   %ax,%ax
  101c58:	66 90                	xchg   %ax,%ax
  101c5a:	66 90                	xchg   %ax,%ax
  101c5c:	66 90                	xchg   %ax,%ax
  101c5e:	66 90                	xchg   %ax,%ax
  101c60:	66 90                	xchg   %ax,%ax
  101c62:	66 90                	xchg   %ax,%ax
  101c64:	66 90                	xchg   %ax,%ax
  101c66:	66 90                	xchg   %ax,%ax
  101c68:	66 90                	xchg   %ax,%ax
  101c6a:	66 90                	xchg   %ax,%ax
  101c6c:	66 90                	xchg   %ax,%ax
  101c6e:	66 90                	xchg   %ax,%ax
  101c70:	66 90                	xchg   %ax,%ax
  101c72:	66 90                	xchg   %ax,%ax
  101c74:	66 90                	xchg   %ax,%ax
  101c76:	66 90                	xchg   %ax,%ax
  101c78:	66 90                	xchg   %ax,%ax
  101c7a:	66 90                	xchg   %ax,%ax
  101c7c:	66 90                	xchg   %ax,%ax
  101c7e:	66 90                	xchg   %ax,%ax
  101c80:	66 90                	xchg   %ax,%ax
  101c82:	66 90                	xchg   %ax,%ax
  101c84:	66 90                	xchg   %ax,%ax
  101c86:	66 90                	xchg   %ax,%ax
  101c88:	66 90                	xchg   %ax,%ax
  101c8a:	66 90                	xchg   %ax,%ax
  101c8c:	66 90                	xchg   %ax,%ax
  101c8e:	66 90                	xchg   %ax,%ax
  101c90:	66 90                	xchg   %ax,%ax
  101c92:	66 90                	xchg   %ax,%ax
  101c94:	66 90                	xchg   %ax,%ax
  101c96:	66 90                	xchg   %ax,%ax
  101c98:	66 90                	xchg   %ax,%ax
  101c9a:	66 90                	xchg   %ax,%ax
  101c9c:	66 90                	xchg   %ax,%ax
  101c9e:	66 90                	xchg   %ax,%ax
  101ca0:	66 90                	xchg   %ax,%ax
  101ca2:	66 90                	xchg   %ax,%ax
  101ca4:	66 90                	xchg   %ax,%ax
  101ca6:	66 90                	xchg   %ax,%ax
  101ca8:	66 90                	xchg   %ax,%ax
  101caa:	66 90                	xchg   %ax,%ax
  101cac:	66 90                	xchg   %ax,%ax
  101cae:	66 90                	xchg   %ax,%ax
  101cb0:	66 90                	xchg   %ax,%ax
  101cb2:	66 90                	xchg   %ax,%ax
  101cb4:	66 90                	xchg   %ax,%ax
  101cb6:	66 90                	xchg   %ax,%ax
  101cb8:	66 90                	xchg   %ax,%ax
  101cba:	66 90                	xchg   %ax,%ax
  101cbc:	66 90                	xchg   %ax,%ax
  101cbe:	66 90                	xchg   %ax,%ax
  101cc0:	66 90                	xchg   %ax,%ax
  101cc2:	66 90                	xchg   %ax,%ax
  101cc4:	66 90                	xchg   %ax,%ax
  101cc6:	66 90                	xchg   %ax,%ax
  101cc8:	66 90                	xchg   %ax,%ax
  101cca:	66 90                	xchg   %ax,%ax
  101ccc:	66 90                	xchg   %ax,%ax
  101cce:	66 90                	xchg   %ax,%ax
  101cd0:	66 90                	xchg   %ax,%ax
  101cd2:	66 90                	xchg   %ax,%ax
  101cd4:	66 90                	xchg   %ax,%ax
  101cd6:	66 90                	xchg   %ax,%ax
  101cd8:	66 90                	xchg   %ax,%ax
  101cda:	66 90                	xchg   %ax,%ax
  101cdc:	66 90                	xchg   %ax,%ax
  101cde:	66 90                	xchg   %ax,%ax
  101ce0:	66 90                	xchg   %ax,%ax
  101ce2:	66 90                	xchg   %ax,%ax
  101ce4:	66 90                	xchg   %ax,%ax
  101ce6:	66 90                	xchg   %ax,%ax
  101ce8:	66 90                	xchg   %ax,%ax
  101cea:	66 90                	xchg   %ax,%ax
  101cec:	66 90                	xchg   %ax,%ax
  101cee:	66 90                	xchg   %ax,%ax
  101cf0:	66 90                	xchg   %ax,%ax
  101cf2:	66 90                	xchg   %ax,%ax
  101cf4:	66 90                	xchg   %ax,%ax
  101cf6:	66 90                	xchg   %ax,%ax
  101cf8:	66 90                	xchg   %ax,%ax
  101cfa:	66 90                	xchg   %ax,%ax
  101cfc:	66 90                	xchg   %ax,%ax
  101cfe:	66 90                	xchg   %ax,%ax
  101d00:	66 90                	xchg   %ax,%ax
  101d02:	66 90                	xchg   %ax,%ax
  101d04:	66 90                	xchg   %ax,%ax
  101d06:	66 90                	xchg   %ax,%ax
  101d08:	66 90                	xchg   %ax,%ax
  101d0a:	66 90                	xchg   %ax,%ax
  101d0c:	66 90                	xchg   %ax,%ax
  101d0e:	66 90                	xchg   %ax,%ax
  101d10:	66 90                	xchg   %ax,%ax
  101d12:	66 90                	xchg   %ax,%ax
  101d14:	66 90                	xchg   %ax,%ax
  101d16:	66 90                	xchg   %ax,%ax
  101d18:	66 90                	xchg   %ax,%ax
  101d1a:	66 90                	xchg   %ax,%ax
  101d1c:	66 90                	xchg   %ax,%ax
  101d1e:	66 90                	xchg   %ax,%ax
  101d20:	66 90                	xchg   %ax,%ax
  101d22:	66 90                	xchg   %ax,%ax
  101d24:	66 90                	xchg   %ax,%ax
  101d26:	66 90                	xchg   %ax,%ax
  101d28:	66 90                	xchg   %ax,%ax
  101d2a:	66 90                	xchg   %ax,%ax
  101d2c:	66 90                	xchg   %ax,%ax
  101d2e:	66 90                	xchg   %ax,%ax
  101d30:	66 90                	xchg   %ax,%ax
  101d32:	66 90                	xchg   %ax,%ax
  101d34:	66 90                	xchg   %ax,%ax
  101d36:	66 90                	xchg   %ax,%ax
  101d38:	66 90                	xchg   %ax,%ax
  101d3a:	66 90                	xchg   %ax,%ax
  101d3c:	66 90                	xchg   %ax,%ax
  101d3e:	66 90                	xchg   %ax,%ax
  101d40:	66 90                	xchg   %ax,%ax
  101d42:	66 90                	xchg   %ax,%ax
  101d44:	66 90                	xchg   %ax,%ax
  101d46:	66 90                	xchg   %ax,%ax
  101d48:	66 90                	xchg   %ax,%ax
  101d4a:	66 90                	xchg   %ax,%ax
  101d4c:	66 90                	xchg   %ax,%ax
  101d4e:	66 90                	xchg   %ax,%ax
  101d50:	66 90                	xchg   %ax,%ax
  101d52:	66 90                	xchg   %ax,%ax
  101d54:	66 90                	xchg   %ax,%ax
  101d56:	66 90                	xchg   %ax,%ax
  101d58:	66 90                	xchg   %ax,%ax
  101d5a:	66 90                	xchg   %ax,%ax
  101d5c:	66 90                	xchg   %ax,%ax
  101d5e:	66 90                	xchg   %ax,%ax
  101d60:	66 90                	xchg   %ax,%ax
  101d62:	66 90                	xchg   %ax,%ax
  101d64:	66 90                	xchg   %ax,%ax
  101d66:	66 90                	xchg   %ax,%ax
  101d68:	66 90                	xchg   %ax,%ax
  101d6a:	66 90                	xchg   %ax,%ax
  101d6c:	66 90                	xchg   %ax,%ax
  101d6e:	66 90                	xchg   %ax,%ax
  101d70:	66 90                	xchg   %ax,%ax
  101d72:	66 90                	xchg   %ax,%ax
  101d74:	66 90                	xchg   %ax,%ax
  101d76:	66 90                	xchg   %ax,%ax
  101d78:	66 90                	xchg   %ax,%ax
  101d7a:	66 90                	xchg   %ax,%ax
  101d7c:	66 90                	xchg   %ax,%ax
  101d7e:	66 90                	xchg   %ax,%ax
  101d80:	66 90                	xchg   %ax,%ax
  101d82:	66 90                	xchg   %ax,%ax
  101d84:	66 90                	xchg   %ax,%ax
  101d86:	66 90                	xchg   %ax,%ax
  101d88:	66 90                	xchg   %ax,%ax
  101d8a:	66 90                	xchg   %ax,%ax
  101d8c:	66 90                	xchg   %ax,%ax
  101d8e:	66 90                	xchg   %ax,%ax
  101d90:	66 90                	xchg   %ax,%ax
  101d92:	66 90                	xchg   %ax,%ax
  101d94:	66 90                	xchg   %ax,%ax
  101d96:	66 90                	xchg   %ax,%ax
  101d98:	66 90                	xchg   %ax,%ax
  101d9a:	66 90                	xchg   %ax,%ax
  101d9c:	66 90                	xchg   %ax,%ax
  101d9e:	66 90                	xchg   %ax,%ax
  101da0:	66 90                	xchg   %ax,%ax
  101da2:	66 90                	xchg   %ax,%ax
  101da4:	66 90                	xchg   %ax,%ax
  101da6:	66 90                	xchg   %ax,%ax
  101da8:	66 90                	xchg   %ax,%ax
  101daa:	66 90                	xchg   %ax,%ax
  101dac:	66 90                	xchg   %ax,%ax
  101dae:	66 90                	xchg   %ax,%ax
  101db0:	66 90                	xchg   %ax,%ax
  101db2:	66 90                	xchg   %ax,%ax
  101db4:	66 90                	xchg   %ax,%ax
  101db6:	66 90                	xchg   %ax,%ax
  101db8:	66 90                	xchg   %ax,%ax
  101dba:	66 90                	xchg   %ax,%ax
  101dbc:	66 90                	xchg   %ax,%ax
  101dbe:	66 90                	xchg   %ax,%ax
  101dc0:	66 90                	xchg   %ax,%ax
  101dc2:	66 90                	xchg   %ax,%ax
  101dc4:	66 90                	xchg   %ax,%ax
  101dc6:	66 90                	xchg   %ax,%ax
  101dc8:	66 90                	xchg   %ax,%ax
  101dca:	66 90                	xchg   %ax,%ax
  101dcc:	66 90                	xchg   %ax,%ax
  101dce:	66 90                	xchg   %ax,%ax
  101dd0:	66 90                	xchg   %ax,%ax
  101dd2:	66 90                	xchg   %ax,%ax
  101dd4:	66 90                	xchg   %ax,%ax
  101dd6:	66 90                	xchg   %ax,%ax
  101dd8:	66 90                	xchg   %ax,%ax
  101dda:	66 90                	xchg   %ax,%ax
  101ddc:	66 90                	xchg   %ax,%ax
  101dde:	66 90                	xchg   %ax,%ax
  101de0:	66 90                	xchg   %ax,%ax
  101de2:	66 90                	xchg   %ax,%ax
  101de4:	66 90                	xchg   %ax,%ax
  101de6:	66 90                	xchg   %ax,%ax
  101de8:	66 90                	xchg   %ax,%ax
  101dea:	66 90                	xchg   %ax,%ax
  101dec:	66 90                	xchg   %ax,%ax
  101dee:	66 90                	xchg   %ax,%ax
  101df0:	66 90                	xchg   %ax,%ax
  101df2:	66 90                	xchg   %ax,%ax
  101df4:	66 90                	xchg   %ax,%ax
  101df6:	66 90                	xchg   %ax,%ax
  101df8:	66 90                	xchg   %ax,%ax
  101dfa:	66 90                	xchg   %ax,%ax
  101dfc:	66 90                	xchg   %ax,%ax
  101dfe:	66 90                	xchg   %ax,%ax
  101e00:	66 90                	xchg   %ax,%ax
  101e02:	66 90                	xchg   %ax,%ax
  101e04:	66 90                	xchg   %ax,%ax
  101e06:	66 90                	xchg   %ax,%ax
  101e08:	66 90                	xchg   %ax,%ax
  101e0a:	66 90                	xchg   %ax,%ax
  101e0c:	66 90                	xchg   %ax,%ax
  101e0e:	66 90                	xchg   %ax,%ax
  101e10:	66 90                	xchg   %ax,%ax
  101e12:	66 90                	xchg   %ax,%ax
  101e14:	66 90                	xchg   %ax,%ax
  101e16:	66 90                	xchg   %ax,%ax
  101e18:	66 90                	xchg   %ax,%ax
  101e1a:	66 90                	xchg   %ax,%ax
  101e1c:	66 90                	xchg   %ax,%ax
  101e1e:	66 90                	xchg   %ax,%ax
  101e20:	66 90                	xchg   %ax,%ax
  101e22:	66 90                	xchg   %ax,%ax
  101e24:	66 90                	xchg   %ax,%ax
  101e26:	66 90                	xchg   %ax,%ax
  101e28:	66 90                	xchg   %ax,%ax
  101e2a:	66 90                	xchg   %ax,%ax
  101e2c:	66 90                	xchg   %ax,%ax
  101e2e:	66 90                	xchg   %ax,%ax
  101e30:	66 90                	xchg   %ax,%ax
  101e32:	66 90                	xchg   %ax,%ax
  101e34:	66 90                	xchg   %ax,%ax
  101e36:	66 90                	xchg   %ax,%ax
  101e38:	66 90                	xchg   %ax,%ax
  101e3a:	66 90                	xchg   %ax,%ax
  101e3c:	66 90                	xchg   %ax,%ax
  101e3e:	66 90                	xchg   %ax,%ax
  101e40:	66 90                	xchg   %ax,%ax
  101e42:	66 90                	xchg   %ax,%ax
  101e44:	66 90                	xchg   %ax,%ax
  101e46:	66 90                	xchg   %ax,%ax
  101e48:	66 90                	xchg   %ax,%ax
  101e4a:	66 90                	xchg   %ax,%ax
  101e4c:	66 90                	xchg   %ax,%ax
  101e4e:	66 90                	xchg   %ax,%ax
  101e50:	66 90                	xchg   %ax,%ax
  101e52:	66 90                	xchg   %ax,%ax
  101e54:	66 90                	xchg   %ax,%ax
  101e56:	66 90                	xchg   %ax,%ax
  101e58:	66 90                	xchg   %ax,%ax
  101e5a:	66 90                	xchg   %ax,%ax
  101e5c:	66 90                	xchg   %ax,%ax
  101e5e:	66 90                	xchg   %ax,%ax
  101e60:	66 90                	xchg   %ax,%ax
  101e62:	66 90                	xchg   %ax,%ax
  101e64:	66 90                	xchg   %ax,%ax
  101e66:	66 90                	xchg   %ax,%ax
  101e68:	66 90                	xchg   %ax,%ax
  101e6a:	66 90                	xchg   %ax,%ax
  101e6c:	66 90                	xchg   %ax,%ax
  101e6e:	66 90                	xchg   %ax,%ax
  101e70:	66 90                	xchg   %ax,%ax
  101e72:	66 90                	xchg   %ax,%ax
  101e74:	66 90                	xchg   %ax,%ax
  101e76:	66 90                	xchg   %ax,%ax
  101e78:	66 90                	xchg   %ax,%ax
  101e7a:	66 90                	xchg   %ax,%ax
  101e7c:	66 90                	xchg   %ax,%ax
  101e7e:	66 90                	xchg   %ax,%ax
  101e80:	66 90                	xchg   %ax,%ax
  101e82:	66 90                	xchg   %ax,%ax
  101e84:	66 90                	xchg   %ax,%ax
  101e86:	66 90                	xchg   %ax,%ax
  101e88:	66 90                	xchg   %ax,%ax
  101e8a:	66 90                	xchg   %ax,%ax
  101e8c:	66 90                	xchg   %ax,%ax
  101e8e:	66 90                	xchg   %ax,%ax
  101e90:	66 90                	xchg   %ax,%ax
  101e92:	66 90                	xchg   %ax,%ax
  101e94:	66 90                	xchg   %ax,%ax
  101e96:	66 90                	xchg   %ax,%ax
  101e98:	66 90                	xchg   %ax,%ax
  101e9a:	66 90                	xchg   %ax,%ax
  101e9c:	66 90                	xchg   %ax,%ax
  101e9e:	66 90                	xchg   %ax,%ax
  101ea0:	66 90                	xchg   %ax,%ax
  101ea2:	66 90                	xchg   %ax,%ax
  101ea4:	66 90                	xchg   %ax,%ax
  101ea6:	66 90                	xchg   %ax,%ax
  101ea8:	66 90                	xchg   %ax,%ax
  101eaa:	66 90                	xchg   %ax,%ax
  101eac:	66 90                	xchg   %ax,%ax
  101eae:	66 90                	xchg   %ax,%ax
  101eb0:	66 90                	xchg   %ax,%ax
  101eb2:	66 90                	xchg   %ax,%ax
  101eb4:	66 90                	xchg   %ax,%ax
  101eb6:	66 90                	xchg   %ax,%ax
  101eb8:	66 90                	xchg   %ax,%ax
  101eba:	66 90                	xchg   %ax,%ax
  101ebc:	66 90                	xchg   %ax,%ax
  101ebe:	66 90                	xchg   %ax,%ax
  101ec0:	66 90                	xchg   %ax,%ax
  101ec2:	66 90                	xchg   %ax,%ax
  101ec4:	66 90                	xchg   %ax,%ax
  101ec6:	66 90                	xchg   %ax,%ax
  101ec8:	66 90                	xchg   %ax,%ax
  101eca:	66 90                	xchg   %ax,%ax
  101ecc:	66 90                	xchg   %ax,%ax
  101ece:	66 90                	xchg   %ax,%ax
  101ed0:	66 90                	xchg   %ax,%ax
  101ed2:	66 90                	xchg   %ax,%ax
  101ed4:	66 90                	xchg   %ax,%ax
  101ed6:	66 90                	xchg   %ax,%ax
  101ed8:	66 90                	xchg   %ax,%ax
  101eda:	66 90                	xchg   %ax,%ax
  101edc:	66 90                	xchg   %ax,%ax
  101ede:	66 90                	xchg   %ax,%ax
  101ee0:	66 90                	xchg   %ax,%ax
  101ee2:	66 90                	xchg   %ax,%ax
  101ee4:	66 90                	xchg   %ax,%ax
  101ee6:	66 90                	xchg   %ax,%ax
  101ee8:	66 90                	xchg   %ax,%ax
  101eea:	66 90                	xchg   %ax,%ax
  101eec:	66 90                	xchg   %ax,%ax
  101eee:	66 90                	xchg   %ax,%ax
  101ef0:	66 90                	xchg   %ax,%ax
  101ef2:	66 90                	xchg   %ax,%ax
  101ef4:	66 90                	xchg   %ax,%ax
  101ef6:	66 90                	xchg   %ax,%ax
  101ef8:	66 90                	xchg   %ax,%ax
  101efa:	66 90                	xchg   %ax,%ax
  101efc:	66 90                	xchg   %ax,%ax
  101efe:	66 90                	xchg   %ax,%ax
  101f00:	66 90                	xchg   %ax,%ax
  101f02:	66 90                	xchg   %ax,%ax
  101f04:	66 90                	xchg   %ax,%ax
  101f06:	66 90                	xchg   %ax,%ax
  101f08:	66 90                	xchg   %ax,%ax
  101f0a:	66 90                	xchg   %ax,%ax
  101f0c:	66 90                	xchg   %ax,%ax
  101f0e:	66 90                	xchg   %ax,%ax
  101f10:	66 90                	xchg   %ax,%ax
  101f12:	66 90                	xchg   %ax,%ax
  101f14:	66 90                	xchg   %ax,%ax
  101f16:	66 90                	xchg   %ax,%ax
  101f18:	66 90                	xchg   %ax,%ax
  101f1a:	66 90                	xchg   %ax,%ax
  101f1c:	66 90                	xchg   %ax,%ax
  101f1e:	66 90                	xchg   %ax,%ax
  101f20:	66 90                	xchg   %ax,%ax
  101f22:	66 90                	xchg   %ax,%ax
  101f24:	66 90                	xchg   %ax,%ax
  101f26:	66 90                	xchg   %ax,%ax
  101f28:	66 90                	xchg   %ax,%ax
  101f2a:	66 90                	xchg   %ax,%ax
  101f2c:	66 90                	xchg   %ax,%ax
  101f2e:	66 90                	xchg   %ax,%ax
  101f30:	66 90                	xchg   %ax,%ax
  101f32:	66 90                	xchg   %ax,%ax
  101f34:	66 90                	xchg   %ax,%ax
  101f36:	66 90                	xchg   %ax,%ax
  101f38:	66 90                	xchg   %ax,%ax
  101f3a:	66 90                	xchg   %ax,%ax
  101f3c:	66 90                	xchg   %ax,%ax
  101f3e:	66 90                	xchg   %ax,%ax
  101f40:	66 90                	xchg   %ax,%ax
  101f42:	66 90                	xchg   %ax,%ax
  101f44:	66 90                	xchg   %ax,%ax
  101f46:	66 90                	xchg   %ax,%ax
  101f48:	66 90                	xchg   %ax,%ax
  101f4a:	66 90                	xchg   %ax,%ax
  101f4c:	66 90                	xchg   %ax,%ax
  101f4e:	66 90                	xchg   %ax,%ax
  101f50:	66 90                	xchg   %ax,%ax
  101f52:	66 90                	xchg   %ax,%ax
  101f54:	66 90                	xchg   %ax,%ax
  101f56:	66 90                	xchg   %ax,%ax
  101f58:	66 90                	xchg   %ax,%ax
  101f5a:	66 90                	xchg   %ax,%ax
  101f5c:	66 90                	xchg   %ax,%ax
  101f5e:	66 90                	xchg   %ax,%ax
  101f60:	66 90                	xchg   %ax,%ax
  101f62:	66 90                	xchg   %ax,%ax
  101f64:	66 90                	xchg   %ax,%ax
  101f66:	66 90                	xchg   %ax,%ax
  101f68:	66 90                	xchg   %ax,%ax
  101f6a:	66 90                	xchg   %ax,%ax
  101f6c:	66 90                	xchg   %ax,%ax
  101f6e:	66 90                	xchg   %ax,%ax
  101f70:	66 90                	xchg   %ax,%ax
  101f72:	66 90                	xchg   %ax,%ax
  101f74:	66 90                	xchg   %ax,%ax
  101f76:	66 90                	xchg   %ax,%ax
  101f78:	66 90                	xchg   %ax,%ax
  101f7a:	66 90                	xchg   %ax,%ax
  101f7c:	66 90                	xchg   %ax,%ax
  101f7e:	66 90                	xchg   %ax,%ax
  101f80:	66 90                	xchg   %ax,%ax
  101f82:	66 90                	xchg   %ax,%ax
  101f84:	66 90                	xchg   %ax,%ax
  101f86:	66 90                	xchg   %ax,%ax
  101f88:	66 90                	xchg   %ax,%ax
  101f8a:	66 90                	xchg   %ax,%ax
  101f8c:	66 90                	xchg   %ax,%ax
  101f8e:	66 90                	xchg   %ax,%ax
  101f90:	66 90                	xchg   %ax,%ax
  101f92:	66 90                	xchg   %ax,%ax
  101f94:	66 90                	xchg   %ax,%ax
  101f96:	66 90                	xchg   %ax,%ax
  101f98:	66 90                	xchg   %ax,%ax
  101f9a:	66 90                	xchg   %ax,%ax
  101f9c:	66 90                	xchg   %ax,%ax
  101f9e:	66 90                	xchg   %ax,%ax
  101fa0:	66 90                	xchg   %ax,%ax
  101fa2:	66 90                	xchg   %ax,%ax
  101fa4:	66 90                	xchg   %ax,%ax
  101fa6:	66 90                	xchg   %ax,%ax
  101fa8:	66 90                	xchg   %ax,%ax
  101faa:	66 90                	xchg   %ax,%ax
  101fac:	66 90                	xchg   %ax,%ax
  101fae:	66 90                	xchg   %ax,%ax
  101fb0:	66 90                	xchg   %ax,%ax
  101fb2:	66 90                	xchg   %ax,%ax
  101fb4:	66 90                	xchg   %ax,%ax
  101fb6:	66 90                	xchg   %ax,%ax
  101fb8:	66 90                	xchg   %ax,%ax
  101fba:	66 90                	xchg   %ax,%ax
  101fbc:	66 90                	xchg   %ax,%ax
  101fbe:	66 90                	xchg   %ax,%ax
  101fc0:	66 90                	xchg   %ax,%ax
  101fc2:	66 90                	xchg   %ax,%ax
  101fc4:	66 90                	xchg   %ax,%ax
  101fc6:	66 90                	xchg   %ax,%ax
  101fc8:	66 90                	xchg   %ax,%ax
  101fca:	66 90                	xchg   %ax,%ax
  101fcc:	66 90                	xchg   %ax,%ax
  101fce:	66 90                	xchg   %ax,%ax
  101fd0:	66 90                	xchg   %ax,%ax
  101fd2:	66 90                	xchg   %ax,%ax
  101fd4:	66 90                	xchg   %ax,%ax
  101fd6:	66 90                	xchg   %ax,%ax
  101fd8:	66 90                	xchg   %ax,%ax
  101fda:	66 90                	xchg   %ax,%ax
  101fdc:	66 90                	xchg   %ax,%ax
  101fde:	66 90                	xchg   %ax,%ax
  101fe0:	66 90                	xchg   %ax,%ax
  101fe2:	66 90                	xchg   %ax,%ax
  101fe4:	66 90                	xchg   %ax,%ax
  101fe6:	66 90                	xchg   %ax,%ax
  101fe8:	66 90                	xchg   %ax,%ax
  101fea:	66 90                	xchg   %ax,%ax
  101fec:	66 90                	xchg   %ax,%ax
  101fee:	66 90                	xchg   %ax,%ax
  101ff0:	66 90                	xchg   %ax,%ax
  101ff2:	66 90                	xchg   %ax,%ax
  101ff4:	66 90                	xchg   %ax,%ax
  101ff6:	66 90                	xchg   %ax,%ax
  101ff8:	66 90                	xchg   %ax,%ax
  101ffa:	66 90                	xchg   %ax,%ax
  101ffc:	66 90                	xchg   %ax,%ax
  101ffe:	66 90                	xchg   %ax,%ax

Disassembly of section .text.__x86.get_pc_thunk.bx:

00102000 <__x86.get_pc_thunk.bx>:
  102000:	8b 1c 24             	mov    (%esp),%ebx
  102003:	c3                   	ret    

Disassembly of section .text.__x86.get_pc_thunk.ax:

00102004 <__x86.get_pc_thunk.ax>:
  102004:	8b 04 24             	mov    (%esp),%eax
  102007:	c3                   	ret    
